
firmware:     file format elf32-littleriscv


Disassembly of section .init:

80000000 <_start>:
80000000:	00021197          	auipc	x3,0x21
80000004:	91018193          	addi	x3,x3,-1776 # 80020910 <__global_pointer$>
80000008:	00022117          	auipc	x2,0x22
8000000c:	ff810113          	addi	x2,x2,-8 # 80022000 <__freertos_irq_stack_top>
80000010:	00000d13          	addi	x26,x0,0
80000014:	00000d93          	addi	x27,x0,0
80000018:	00002517          	auipc	x10,0x2
8000001c:	28450513          	addi	x10,x10,644 # 8000229c <__data_lma>
80000020:	00020597          	auipc	x11,0x20
80000024:	fe058593          	addi	x11,x11,-32 # 80020000 <_data>
80000028:	00020617          	auipc	x12,0x20
8000002c:	0f860613          	addi	x12,x12,248 # 80020120 <pxCurrentTCB>
80000030:	00c5fc63          	bgeu	x11,x12,80000048 <clear_bss_section>

80000034 <load_store_loop>:
80000034:	00052283          	lw	x5,0(x10)
80000038:	0055a023          	sw	x5,0(x11)
8000003c:	00450513          	addi	x10,x10,4
80000040:	00458593          	addi	x11,x11,4
80000044:	fec5e8e3          	bltu	x11,x12,80000034 <load_store_loop>

80000048 <clear_bss_section>:
80000048:	00020517          	auipc	x10,0x20
8000004c:	0d850513          	addi	x10,x10,216 # 80020120 <pxCurrentTCB>
80000050:	15818593          	addi	x11,x3,344 # 80020a68 <_end>
80000054:	00b57863          	bgeu	x10,x11,80000064 <done>

80000058 <store_zero_loop>:
80000058:	00052023          	sw	x0,0(x10)
8000005c:	00450513          	addi	x10,x10,4
80000060:	feb56ce3          	bltu	x10,x11,80000058 <store_zero_loop>

80000064 <done>:
80000064:	6b9010ef          	jal	x1,80001f1c <_init>
80000068:	098000ef          	jal	x1,80000100 <main>
8000006c:	00100d13          	addi	x26,x0,1

80000070 <loop>:
80000070:	0000006f          	jal	x0,80000070 <loop>

Disassembly of section .text:

80000100 <main>:
80000100:	ff010113          	addi	x2,x2,-16
80000104:	00112623          	sw	x1,12(x2)
80000108:	00200d13          	addi	x26,x0,2
8000010c:	59d010ef          	jal	x1,80001ea8 <main_blinky>
80000110:	00c12083          	lw	x1,12(x2)
80000114:	00000513          	addi	x10,x0,0
80000118:	01010113          	addi	x2,x2,16
8000011c:	00008067          	jalr	x0,0(x1)
80000120:	0000                	c.unimp
80000122:	0000                	c.unimp
80000124:	0000                	c.unimp
80000126:	0000                	c.unimp
80000128:	0000                	c.unimp
8000012a:	0000                	c.unimp
8000012c:	0000                	c.unimp
8000012e:	0000                	c.unimp
80000130:	0000                	c.unimp
80000132:	0000                	c.unimp
80000134:	0000                	c.unimp
80000136:	0000                	c.unimp
80000138:	0000                	c.unimp
8000013a:	0000                	c.unimp
8000013c:	0000                	c.unimp
8000013e:	0000                	c.unimp
80000140:	0000                	c.unimp
80000142:	0000                	c.unimp
80000144:	0000                	c.unimp
80000146:	0000                	c.unimp
80000148:	0000                	c.unimp
8000014a:	0000                	c.unimp
8000014c:	0000                	c.unimp
8000014e:	0000                	c.unimp
80000150:	0000                	c.unimp
80000152:	0000                	c.unimp
80000154:	0000                	c.unimp
80000156:	0000                	c.unimp
80000158:	0000                	c.unimp
8000015a:	0000                	c.unimp
8000015c:	0000                	c.unimp
8000015e:	0000                	c.unimp
80000160:	0000                	c.unimp
80000162:	0000                	c.unimp
80000164:	0000                	c.unimp
80000166:	0000                	c.unimp
80000168:	0000                	c.unimp
8000016a:	0000                	c.unimp
8000016c:	0000                	c.unimp
8000016e:	0000                	c.unimp
80000170:	0000                	c.unimp
80000172:	0000                	c.unimp
80000174:	0000                	c.unimp
80000176:	0000                	c.unimp
80000178:	0000                	c.unimp
8000017a:	0000                	c.unimp
8000017c:	0000                	c.unimp
8000017e:	0000                	c.unimp
80000180:	0000                	c.unimp
80000182:	0000                	c.unimp
80000184:	0000                	c.unimp
80000186:	0000                	c.unimp
80000188:	0000                	c.unimp
8000018a:	0000                	c.unimp
8000018c:	0000                	c.unimp
8000018e:	0000                	c.unimp
80000190:	0000                	c.unimp
80000192:	0000                	c.unimp
80000194:	0000                	c.unimp
80000196:	0000                	c.unimp
80000198:	0000                	c.unimp
8000019a:	0000                	c.unimp
8000019c:	0000                	c.unimp
8000019e:	0000                	c.unimp
800001a0:	0000                	c.unimp
800001a2:	0000                	c.unimp
800001a4:	0000                	c.unimp
800001a6:	0000                	c.unimp
800001a8:	0000                	c.unimp
800001aa:	0000                	c.unimp
800001ac:	0000                	c.unimp
800001ae:	0000                	c.unimp
800001b0:	0000                	c.unimp
800001b2:	0000                	c.unimp
800001b4:	0000                	c.unimp
800001b6:	0000                	c.unimp
800001b8:	0000                	c.unimp
800001ba:	0000                	c.unimp
800001bc:	0000                	c.unimp
800001be:	0000                	c.unimp
800001c0:	0000                	c.unimp
800001c2:	0000                	c.unimp
800001c4:	0000                	c.unimp
800001c6:	0000                	c.unimp
800001c8:	0000                	c.unimp
800001ca:	0000                	c.unimp
800001cc:	0000                	c.unimp
800001ce:	0000                	c.unimp
800001d0:	0000                	c.unimp
800001d2:	0000                	c.unimp
800001d4:	0000                	c.unimp
800001d6:	0000                	c.unimp
800001d8:	0000                	c.unimp
800001da:	0000                	c.unimp
800001dc:	0000                	c.unimp
800001de:	0000                	c.unimp
800001e0:	0000                	c.unimp
800001e2:	0000                	c.unimp
800001e4:	0000                	c.unimp
800001e6:	0000                	c.unimp
800001e8:	0000                	c.unimp
800001ea:	0000                	c.unimp
800001ec:	0000                	c.unimp
800001ee:	0000                	c.unimp
800001f0:	0000                	c.unimp
800001f2:	0000                	c.unimp
800001f4:	0000                	c.unimp
800001f6:	0000                	c.unimp
800001f8:	0000                	c.unimp
800001fa:	0000                	c.unimp
800001fc:	0000                	c.unimp
800001fe:	0000                	c.unimp

80000200 <freertos_risc_v_trap_handler>:
80000200:	f8810113          	addi	x2,x2,-120
80000204:	00112223          	sw	x1,4(x2)
80000208:	00512423          	sw	x5,8(x2)
8000020c:	00612623          	sw	x6,12(x2)
80000210:	00712823          	sw	x7,16(x2)
80000214:	00812a23          	sw	x8,20(x2)
80000218:	00912c23          	sw	x9,24(x2)
8000021c:	00a12e23          	sw	x10,28(x2)
80000220:	02b12023          	sw	x11,32(x2)
80000224:	02c12223          	sw	x12,36(x2)
80000228:	02d12423          	sw	x13,40(x2)
8000022c:	02e12623          	sw	x14,44(x2)
80000230:	02f12823          	sw	x15,48(x2)
80000234:	03012a23          	sw	x16,52(x2)
80000238:	03112c23          	sw	x17,56(x2)
8000023c:	03212e23          	sw	x18,60(x2)
80000240:	05312023          	sw	x19,64(x2)
80000244:	05412223          	sw	x20,68(x2)
80000248:	05512423          	sw	x21,72(x2)
8000024c:	05612623          	sw	x22,76(x2)
80000250:	05712823          	sw	x23,80(x2)
80000254:	05812a23          	sw	x24,84(x2)
80000258:	05912c23          	sw	x25,88(x2)
8000025c:	05a12e23          	sw	x26,92(x2)
80000260:	07b12023          	sw	x27,96(x2)
80000264:	07c12223          	sw	x28,100(x2)
80000268:	07d12423          	sw	x29,104(x2)
8000026c:	07e12623          	sw	x30,108(x2)
80000270:	07f12823          	sw	x31,112(x2)
80000274:	300022f3          	csrrs	x5,mstatus,x0
80000278:	06512a23          	sw	x5,116(x2)
8000027c:	00020297          	auipc	x5,0x20
80000280:	ea42a283          	lw	x5,-348(x5) # 80020120 <pxCurrentTCB>
80000284:	0022a023          	sw	x2,0(x5)
80000288:	34202573          	csrrs	x10,mcause,x0
8000028c:	341025f3          	csrrs	x11,mepc,x0

80000290 <test_if_asynchronous>:
80000290:	01f55613          	srli	x12,x10,0x1f
80000294:	06060e63          	beq	x12,x0,80000310 <handle_synchronous>
80000298:	00b12023          	sw	x11,0(x2)

8000029c <handle_asynchronous>:
8000029c:	00100293          	addi	x5,x0,1
800002a0:	01f29293          	slli	x5,x5,0x1f
800002a4:	00728313          	addi	x6,x5,7
800002a8:	04651c63          	bne	x10,x6,80000300 <test_if_external_interrupt>
800002ac:	00020297          	auipc	x5,0x20
800002b0:	eb02a283          	lw	x5,-336(x5) # 8002015c <pullMachineTimerCompareRegister>
800002b4:	00020317          	auipc	x6,0x20
800002b8:	e6032303          	lw	x6,-416(x6) # 80020114 <pullNextTime>
800002bc:	fff00e93          	addi	x29,x0,-1
800002c0:	00032383          	lw	x7,0(x6)
800002c4:	00432e03          	lw	x28,4(x6)
800002c8:	01d2a023          	sw	x29,0(x5)
800002cc:	01c2a223          	sw	x28,4(x5)
800002d0:	0072a023          	sw	x7,0(x5)
800002d4:	8081a283          	lw	x5,-2040(x3) # 80020118 <uxTimerIncrementsForOneTick>
800002d8:	00728eb3          	add	x29,x5,x7
800002dc:	007ebf33          	sltu	x30,x29,x7
800002e0:	01ee0fb3          	add	x31,x28,x30
800002e4:	01d32023          	sw	x29,0(x6)
800002e8:	01f32223          	sw	x31,4(x6)
800002ec:	80c1a103          	lw	x2,-2036(x3) # 8002011c <xISRStackTop>
800002f0:	680000ef          	jal	x1,80000970 <xTaskIncrementTick>
800002f4:	04050863          	beq	x10,x0,80000344 <processed_source>
800002f8:	081000ef          	jal	x1,80000b78 <vTaskSwitchContext>
800002fc:	0480006f          	jal	x0,80000344 <processed_source>

80000300 <test_if_external_interrupt>:
80000300:	00430313          	addi	x6,x6,4
80000304:	02651c63          	bne	x10,x6,8000033c <as_yet_unhandled>
80000308:	80c1a103          	lw	x2,-2036(x3) # 8002011c <xISRStackTop>
8000030c:	0380006f          	jal	x0,80000344 <processed_source>

80000310 <handle_synchronous>:
80000310:	00458593          	addi	x11,x11,4
80000314:	00b12023          	sw	x11,0(x2)

80000318 <test_if_environment_call>:
80000318:	00b00293          	addi	x5,x0,11
8000031c:	00551863          	bne	x10,x5,8000032c <is_exception>
80000320:	80c1a103          	lw	x2,-2036(x3) # 8002011c <xISRStackTop>
80000324:	055000ef          	jal	x1,80000b78 <vTaskSwitchContext>
80000328:	01c0006f          	jal	x0,80000344 <processed_source>

8000032c <is_exception>:
8000032c:	342022f3          	csrrs	x5,mcause,x0
80000330:	34102373          	csrrs	x6,mepc,x0
80000334:	300023f3          	csrrs	x7,mstatus,x0
80000338:	ff5ff06f          	jal	x0,8000032c <is_exception>

8000033c <as_yet_unhandled>:
8000033c:	342022f3          	csrrs	x5,mcause,x0
80000340:	ffdff06f          	jal	x0,8000033c <as_yet_unhandled>

80000344 <processed_source>:
80000344:	00020317          	auipc	x6,0x20
80000348:	ddc32303          	lw	x6,-548(x6) # 80020120 <pxCurrentTCB>
8000034c:	00032103          	lw	x2,0(x6)
80000350:	00012283          	lw	x5,0(x2)
80000354:	34129073          	csrrw	x0,mepc,x5
80000358:	07412283          	lw	x5,116(x2)
8000035c:	30029073          	csrrw	x0,mstatus,x5
80000360:	00412083          	lw	x1,4(x2)
80000364:	00812283          	lw	x5,8(x2)
80000368:	00c12303          	lw	x6,12(x2)
8000036c:	01012383          	lw	x7,16(x2)
80000370:	01412403          	lw	x8,20(x2)
80000374:	01812483          	lw	x9,24(x2)
80000378:	01c12503          	lw	x10,28(x2)
8000037c:	02012583          	lw	x11,32(x2)
80000380:	02412603          	lw	x12,36(x2)
80000384:	02812683          	lw	x13,40(x2)
80000388:	02c12703          	lw	x14,44(x2)
8000038c:	03012783          	lw	x15,48(x2)
80000390:	03412803          	lw	x16,52(x2)
80000394:	03812883          	lw	x17,56(x2)
80000398:	03c12903          	lw	x18,60(x2)
8000039c:	04012983          	lw	x19,64(x2)
800003a0:	04412a03          	lw	x20,68(x2)
800003a4:	04812a83          	lw	x21,72(x2)
800003a8:	04c12b03          	lw	x22,76(x2)
800003ac:	05012b83          	lw	x23,80(x2)
800003b0:	05412c03          	lw	x24,84(x2)
800003b4:	05812c83          	lw	x25,88(x2)
800003b8:	05c12d03          	lw	x26,92(x2)
800003bc:	06012d83          	lw	x27,96(x2)
800003c0:	06412e03          	lw	x28,100(x2)
800003c4:	06812e83          	lw	x29,104(x2)
800003c8:	06c12f03          	lw	x30,108(x2)
800003cc:	07012f83          	lw	x31,112(x2)
800003d0:	07810113          	addi	x2,x2,120
800003d4:	30200073          	mret
800003d8:	00000013          	addi	x0,x0,0
800003dc:	00000013          	addi	x0,x0,0
800003e0:	00000013          	addi	x0,x0,0
800003e4:	00000013          	addi	x0,x0,0
800003e8:	00000013          	addi	x0,x0,0
800003ec:	00000013          	addi	x0,x0,0
800003f0:	00000013          	addi	x0,x0,0
800003f4:	00000013          	addi	x0,x0,0
800003f8:	00000013          	addi	x0,x0,0
800003fc:	00000013          	addi	x0,x0,0

80000400 <xPortStartFirstTask>:
80000400:	00000297          	auipc	x5,0x0
80000404:	e0028293          	addi	x5,x5,-512 # 80000200 <freertos_risc_v_trap_handler>
80000408:	30529073          	csrrw	x0,mtvec,x5
8000040c:	00020117          	auipc	x2,0x20
80000410:	d1412103          	lw	x2,-748(x2) # 80020120 <pxCurrentTCB>
80000414:	00012103          	lw	x2,0(x2)
80000418:	00012083          	lw	x1,0(x2)
8000041c:	00c12303          	lw	x6,12(x2)
80000420:	01012383          	lw	x7,16(x2)
80000424:	01412403          	lw	x8,20(x2)
80000428:	01812483          	lw	x9,24(x2)
8000042c:	01c12503          	lw	x10,28(x2)
80000430:	02012583          	lw	x11,32(x2)
80000434:	02412603          	lw	x12,36(x2)
80000438:	02812683          	lw	x13,40(x2)
8000043c:	02c12703          	lw	x14,44(x2)
80000440:	03012783          	lw	x15,48(x2)
80000444:	03412803          	lw	x16,52(x2)
80000448:	03812883          	lw	x17,56(x2)
8000044c:	03c12903          	lw	x18,60(x2)
80000450:	04012983          	lw	x19,64(x2)
80000454:	04412a03          	lw	x20,68(x2)
80000458:	04812a83          	lw	x21,72(x2)
8000045c:	04c12b03          	lw	x22,76(x2)
80000460:	05012b83          	lw	x23,80(x2)
80000464:	05412c03          	lw	x24,84(x2)
80000468:	05812c83          	lw	x25,88(x2)
8000046c:	05c12d03          	lw	x26,92(x2)
80000470:	06012d83          	lw	x27,96(x2)
80000474:	06412e03          	lw	x28,100(x2)
80000478:	06812e83          	lw	x29,104(x2)
8000047c:	06c12f03          	lw	x30,108(x2)
80000480:	07012f83          	lw	x31,112(x2)
80000484:	07412283          	lw	x5,116(x2)
80000488:	00828293          	addi	x5,x5,8
8000048c:	30029073          	csrrw	x0,mstatus,x5
80000490:	00812283          	lw	x5,8(x2)
80000494:	07810113          	addi	x2,x2,120
80000498:	00008067          	jalr	x0,0(x1)
8000049c:	00000013          	addi	x0,x0,0
800004a0:	00000013          	addi	x0,x0,0
800004a4:	00000013          	addi	x0,x0,0
800004a8:	00000013          	addi	x0,x0,0
800004ac:	00000013          	addi	x0,x0,0
800004b0:	00000013          	addi	x0,x0,0
800004b4:	00000013          	addi	x0,x0,0
800004b8:	00000013          	addi	x0,x0,0
800004bc:	00000013          	addi	x0,x0,0
800004c0:	00000013          	addi	x0,x0,0
800004c4:	00000013          	addi	x0,x0,0
800004c8:	00000013          	addi	x0,x0,0
800004cc:	00000013          	addi	x0,x0,0
800004d0:	00000013          	addi	x0,x0,0
800004d4:	00000013          	addi	x0,x0,0
800004d8:	00000013          	addi	x0,x0,0
800004dc:	00000013          	addi	x0,x0,0
800004e0:	00000013          	addi	x0,x0,0
800004e4:	00000013          	addi	x0,x0,0
800004e8:	00000013          	addi	x0,x0,0
800004ec:	00000013          	addi	x0,x0,0
800004f0:	00000013          	addi	x0,x0,0
800004f4:	00000013          	addi	x0,x0,0
800004f8:	00000013          	addi	x0,x0,0
800004fc:	00000013          	addi	x0,x0,0

80000500 <pxPortInitialiseStack>:
80000500:	300022f3          	csrrs	x5,mstatus,x0
80000504:	ff72f293          	andi	x5,x5,-9
80000508:	18800313          	addi	x6,x0,392
8000050c:	00431313          	slli	x6,x6,0x4
80000510:	0062e2b3          	or	x5,x5,x6
80000514:	ffc50513          	addi	x10,x10,-4
80000518:	00552023          	sw	x5,0(x10)
8000051c:	fa850513          	addi	x10,x10,-88
80000520:	00c52023          	sw	x12,0(x10)
80000524:	fe850513          	addi	x10,x10,-24
80000528:	00052023          	sw	x0,0(x10)
8000052c:	00000293          	addi	x5,x0,0

80000530 <chip_specific_stack_frame>:
80000530:	00028a63          	beq	x5,x0,80000544 <chip_specific_stack_frame+0x14>
80000534:	ffc50513          	addi	x10,x10,-4
80000538:	00052023          	sw	x0,0(x10)
8000053c:	fff28293          	addi	x5,x5,-1
80000540:	ff1ff06f          	jal	x0,80000530 <chip_specific_stack_frame>
80000544:	ffc50513          	addi	x10,x10,-4
80000548:	00b52023          	sw	x11,0(x10)
8000054c:	00008067          	jalr	x0,0(x1)
80000550:	0000                	c.unimp
80000552:	0000                	c.unimp
80000554:	0000                	c.unimp
80000556:	0000                	c.unimp
80000558:	0000                	c.unimp
8000055a:	0000                	c.unimp
8000055c:	0000                	c.unimp
8000055e:	0000                	c.unimp
80000560:	0000                	c.unimp
80000562:	0000                	c.unimp
80000564:	0000                	c.unimp
80000566:	0000                	c.unimp
80000568:	0000                	c.unimp
8000056a:	0000                	c.unimp
8000056c:	0000                	c.unimp
8000056e:	0000                	c.unimp
80000570:	0000                	c.unimp
80000572:	0000                	c.unimp
80000574:	0000                	c.unimp
80000576:	0000                	c.unimp
80000578:	0000                	c.unimp
8000057a:	0000                	c.unimp
8000057c:	0000                	c.unimp
8000057e:	0000                	c.unimp
80000580:	0000                	c.unimp
80000582:	0000                	c.unimp
80000584:	0000                	c.unimp
80000586:	0000                	c.unimp

80000588 <trap_entry>:
80000588:	f8010113          	addi	x2,x2,-128
8000058c:	00112223          	sw	x1,4(x2)
80000590:	00212423          	sw	x2,8(x2)
80000594:	00312623          	sw	x3,12(x2)
80000598:	00412823          	sw	x4,16(x2)
8000059c:	00512a23          	sw	x5,20(x2)
800005a0:	00612c23          	sw	x6,24(x2)
800005a4:	00712e23          	sw	x7,28(x2)
800005a8:	02812023          	sw	x8,32(x2)
800005ac:	02912223          	sw	x9,36(x2)
800005b0:	02a12423          	sw	x10,40(x2)
800005b4:	02b12623          	sw	x11,44(x2)
800005b8:	02c12823          	sw	x12,48(x2)
800005bc:	02d12a23          	sw	x13,52(x2)
800005c0:	02e12c23          	sw	x14,56(x2)
800005c4:	02f12e23          	sw	x15,60(x2)
800005c8:	05012023          	sw	x16,64(x2)
800005cc:	05112223          	sw	x17,68(x2)
800005d0:	05212423          	sw	x18,72(x2)
800005d4:	05312623          	sw	x19,76(x2)
800005d8:	05412823          	sw	x20,80(x2)
800005dc:	05512a23          	sw	x21,84(x2)
800005e0:	05612c23          	sw	x22,88(x2)
800005e4:	05712e23          	sw	x23,92(x2)
800005e8:	07812023          	sw	x24,96(x2)
800005ec:	07912223          	sw	x25,100(x2)
800005f0:	07c12823          	sw	x28,112(x2)
800005f4:	07d12a23          	sw	x29,116(x2)
800005f8:	07e12c23          	sw	x30,120(x2)
800005fc:	07f12e23          	sw	x31,124(x2)
80000600:	34202573          	csrrs	x10,mcause,x0
80000604:	341025f3          	csrrs	x11,mepc,x0

80000608 <test_if_asynchronous>:
80000608:	01f55613          	srli	x12,x10,0x1f
8000060c:	00060663          	beq	x12,x0,80000618 <handle_synchronous>
80000610:	08c000ef          	jal	x1,8000069c <trap_handler>
80000614:	00c0006f          	jal	x0,80000620 <asynchronous_return>

80000618 <handle_synchronous>:
80000618:	00458593          	addi	x11,x11,4
8000061c:	34159073          	csrrw	x0,mepc,x11

80000620 <asynchronous_return>:
80000620:	00412083          	lw	x1,4(x2)
80000624:	00812103          	lw	x2,8(x2)
80000628:	00c12183          	lw	x3,12(x2)
8000062c:	01012203          	lw	x4,16(x2)
80000630:	01412283          	lw	x5,20(x2)
80000634:	01812303          	lw	x6,24(x2)
80000638:	01c12383          	lw	x7,28(x2)
8000063c:	02012403          	lw	x8,32(x2)
80000640:	02412483          	lw	x9,36(x2)
80000644:	02812503          	lw	x10,40(x2)
80000648:	02c12583          	lw	x11,44(x2)
8000064c:	03012603          	lw	x12,48(x2)
80000650:	03412683          	lw	x13,52(x2)
80000654:	03812703          	lw	x14,56(x2)
80000658:	03c12783          	lw	x15,60(x2)
8000065c:	04012803          	lw	x16,64(x2)
80000660:	04412883          	lw	x17,68(x2)
80000664:	04812903          	lw	x18,72(x2)
80000668:	04c12983          	lw	x19,76(x2)
8000066c:	05012a03          	lw	x20,80(x2)
80000670:	05412a83          	lw	x21,84(x2)
80000674:	05812b03          	lw	x22,88(x2)
80000678:	05c12b83          	lw	x23,92(x2)
8000067c:	06012c03          	lw	x24,96(x2)
80000680:	06412c83          	lw	x25,100(x2)
80000684:	07012e03          	lw	x28,112(x2)
80000688:	07412e83          	lw	x29,116(x2)
8000068c:	07812f03          	lw	x30,120(x2)
80000690:	07c12f83          	lw	x31,124(x2)
80000694:	08010113          	addi	x2,x2,128
80000698:	30200073          	mret

8000069c <trap_handler>:
8000069c:	0000006f          	jal	x0,8000069c <trap_handler>

800006a0 <vToggleLED>:
800006a0:	0ff00d93          	addi	x27,x0,255
800006a4:	10012737          	lui	x14,0x10012
800006a8:	00072783          	lw	x15,0(x14) # 10012000 <__stack_size+0x10010000>
800006ac:	0017c793          	xori	x15,x15,1
800006b0:	00f72023          	sw	x15,0(x14)
800006b4:	00008067          	jalr	x0,0(x1)

800006b8 <vApplicationMallocFailedHook>:
800006b8:	30047073          	csrrci	x0,mstatus,8
800006bc:	0000006f          	jal	x0,800006bc <vApplicationMallocFailedHook+0x4>

800006c0 <vApplicationStackOverflowHook>:
800006c0:	30047073          	csrrci	x0,mstatus,8
800006c4:	0000006f          	jal	x0,800006c4 <vApplicationStackOverflowHook+0x4>

800006c8 <vApplicationTickHook>:
800006c8:	00008067          	jalr	x0,0(x1)

800006cc <vAssertCalled>:
800006cc:	ff010113          	addi	x2,x2,-16
800006d0:	30047073          	csrrci	x0,mstatus,8
800006d4:	000207b7          	lui	x15,0x20
800006d8:	ffe78793          	addi	x15,x15,-2 # 1fffe <__stack_size+0x1dffe>
800006dc:	100126b7          	lui	x13,0x10012
800006e0:	00012623          	sw	x0,12(x2)
800006e4:	00c12703          	lw	x14,12(x2)
800006e8:	fee7ece3          	bltu	x15,x14,800006e0 <vAssertCalled+0x14>
800006ec:	00000013          	addi	x0,x0,0
800006f0:	0006a703          	lw	x14,0(x13) # 10012000 <__stack_size+0x10010000>
800006f4:	00174713          	xori	x14,x14,1
800006f8:	00e6a023          	sw	x14,0(x13)
800006fc:	00c12703          	lw	x14,12(x2)
80000700:	00170713          	addi	x14,x14,1
80000704:	00e12623          	sw	x14,12(x2)
80000708:	fddff06f          	jal	x0,800006e4 <vAssertCalled+0x18>

8000070c <vListInitialise>:
8000070c:	00850793          	addi	x15,x10,8
80000710:	fff00713          	addi	x14,x0,-1
80000714:	00f52223          	sw	x15,4(x10)
80000718:	00e52423          	sw	x14,8(x10)
8000071c:	00f52623          	sw	x15,12(x10)
80000720:	00f52823          	sw	x15,16(x10)
80000724:	00052023          	sw	x0,0(x10)
80000728:	00008067          	jalr	x0,0(x1)

8000072c <vListInitialiseItem>:
8000072c:	00052823          	sw	x0,16(x10)
80000730:	00008067          	jalr	x0,0(x1)

80000734 <vListInsertEnd>:
80000734:	00452783          	lw	x15,4(x10)
80000738:	0087a703          	lw	x14,8(x15)
8000073c:	00f5a223          	sw	x15,4(x11)
80000740:	00e5a423          	sw	x14,8(x11)
80000744:	0087a703          	lw	x14,8(x15)
80000748:	00b72223          	sw	x11,4(x14)
8000074c:	00b7a423          	sw	x11,8(x15)
80000750:	00052783          	lw	x15,0(x10)
80000754:	00a5a823          	sw	x10,16(x11)
80000758:	00178793          	addi	x15,x15,1
8000075c:	00f52023          	sw	x15,0(x10)
80000760:	00008067          	jalr	x0,0(x1)

80000764 <vListInsert>:
80000764:	0005a683          	lw	x13,0(x11)
80000768:	fff00793          	addi	x15,x0,-1
8000076c:	00850713          	addi	x14,x10,8
80000770:	02f69863          	bne	x13,x15,800007a0 <vListInsert+0x3c>
80000774:	01052783          	lw	x15,16(x10)
80000778:	0047a703          	lw	x14,4(x15)
8000077c:	00e5a223          	sw	x14,4(x11)
80000780:	00b72423          	sw	x11,8(x14)
80000784:	00f5a423          	sw	x15,8(x11)
80000788:	00b7a223          	sw	x11,4(x15)
8000078c:	00052783          	lw	x15,0(x10)
80000790:	00a5a823          	sw	x10,16(x11)
80000794:	00178793          	addi	x15,x15,1
80000798:	00f52023          	sw	x15,0(x10)
8000079c:	00008067          	jalr	x0,0(x1)
800007a0:	00070793          	addi	x15,x14,0
800007a4:	00472703          	lw	x14,4(x14)
800007a8:	00072603          	lw	x12,0(x14)
800007ac:	fec6fae3          	bgeu	x13,x12,800007a0 <vListInsert+0x3c>
800007b0:	fc9ff06f          	jal	x0,80000778 <vListInsert+0x14>

800007b4 <uxListRemove>:
800007b4:	00452683          	lw	x13,4(x10)
800007b8:	00852703          	lw	x14,8(x10)
800007bc:	01052783          	lw	x15,16(x10)
800007c0:	00e6a423          	sw	x14,8(x13)
800007c4:	00d72223          	sw	x13,4(x14)
800007c8:	0047a683          	lw	x13,4(x15)
800007cc:	00a69463          	bne	x13,x10,800007d4 <uxListRemove+0x20>
800007d0:	00e7a223          	sw	x14,4(x15)
800007d4:	0007a703          	lw	x14,0(x15)
800007d8:	00052823          	sw	x0,16(x10)
800007dc:	fff70713          	addi	x14,x14,-1
800007e0:	00e7a023          	sw	x14,0(x15)
800007e4:	0007a503          	lw	x10,0(x15)
800007e8:	00008067          	jalr	x0,0(x1)

800007ec <prvAddCurrentTaskToDelayedList>:
800007ec:	fe010113          	addi	x2,x2,-32
800007f0:	00912a23          	sw	x9,20(x2)
800007f4:	800207b7          	lui	x15,0x80020
800007f8:	800204b7          	lui	x9,0x80020
800007fc:	01312623          	sw	x19,12(x2)
80000800:	1547a983          	lw	x19,340(x15) # 80020154 <__freertos_irq_stack_top+0xffffe154>
80000804:	12048793          	addi	x15,x9,288 # 80020120 <__freertos_irq_stack_top+0xffffe120>
80000808:	0007a703          	lw	x14,0(x15)
8000080c:	00812c23          	sw	x8,24(x2)
80000810:	00050413          	addi	x8,x10,0
80000814:	0007a503          	lw	x10,0(x15)
80000818:	01212823          	sw	x18,16(x2)
8000081c:	00112e23          	sw	x1,28(x2)
80000820:	04070aa3          	sb	x0,85(x14)
80000824:	00450513          	addi	x10,x10,4
80000828:	00058913          	addi	x18,x11,0
8000082c:	f89ff0ef          	jal	x1,800007b4 <uxListRemove>
80000830:	12048793          	addi	x15,x9,288
80000834:	02051663          	bne	x10,x0,80000860 <prvAddCurrentTaskToDelayedList+0x74>
80000838:	0007a703          	lw	x14,0(x15)
8000083c:	800206b7          	lui	x13,0x80020
80000840:	13c68693          	addi	x13,x13,316 # 8002013c <__freertos_irq_stack_top+0xffffe13c>
80000844:	02c72583          	lw	x11,44(x14)
80000848:	0006a603          	lw	x12,0(x13)
8000084c:	00100713          	addi	x14,x0,1
80000850:	00b71733          	sll	x14,x14,x11
80000854:	fff74713          	xori	x14,x14,-1
80000858:	00c77733          	and	x14,x14,x12
8000085c:	00e6a023          	sw	x14,0(x13)
80000860:	fff00713          	addi	x14,x0,-1
80000864:	02e41863          	bne	x8,x14,80000894 <prvAddCurrentTaskToDelayedList+0xa8>
80000868:	02090663          	beq	x18,x0,80000894 <prvAddCurrentTaskToDelayedList+0xa8>
8000086c:	0007a583          	lw	x11,0(x15)
80000870:	01812403          	lw	x8,24(x2)
80000874:	01c12083          	lw	x1,28(x2)
80000878:	01412483          	lw	x9,20(x2)
8000087c:	01012903          	lw	x18,16(x2)
80000880:	00c12983          	lw	x19,12(x2)
80000884:	00458593          	addi	x11,x11,4
80000888:	92c18513          	addi	x10,x3,-1748 # 8002023c <xSuspendedTaskList>
8000088c:	02010113          	addi	x2,x2,32
80000890:	ea5ff06f          	jal	x0,80000734 <vListInsertEnd>
80000894:	0007a703          	lw	x14,0(x15)
80000898:	00898433          	add	x8,x19,x8
8000089c:	00872223          	sw	x8,4(x14)
800008a0:	03347863          	bgeu	x8,x19,800008d0 <prvAddCurrentTaskToDelayedList+0xe4>
800008a4:	80020737          	lui	x14,0x80020
800008a8:	12872503          	lw	x10,296(x14) # 80020128 <__freertos_irq_stack_top+0xffffe128>
800008ac:	01812403          	lw	x8,24(x2)
800008b0:	0007a583          	lw	x11,0(x15)
800008b4:	01c12083          	lw	x1,28(x2)
800008b8:	01412483          	lw	x9,20(x2)
800008bc:	01012903          	lw	x18,16(x2)
800008c0:	00c12983          	lw	x19,12(x2)
800008c4:	00458593          	addi	x11,x11,4
800008c8:	02010113          	addi	x2,x2,32
800008cc:	e99ff06f          	jal	x0,80000764 <vListInsert>
800008d0:	80020737          	lui	x14,0x80020
800008d4:	12472503          	lw	x10,292(x14) # 80020124 <__freertos_irq_stack_top+0xffffe124>
800008d8:	0007a583          	lw	x11,0(x15)
800008dc:	00458593          	addi	x11,x11,4
800008e0:	e85ff0ef          	jal	x1,80000764 <vListInsert>
800008e4:	800207b7          	lui	x15,0x80020
800008e8:	14478793          	addi	x15,x15,324 # 80020144 <__freertos_irq_stack_top+0xffffe144>
800008ec:	0007a703          	lw	x14,0(x15)
800008f0:	00e47463          	bgeu	x8,x14,800008f8 <prvAddCurrentTaskToDelayedList+0x10c>
800008f4:	0087a023          	sw	x8,0(x15)
800008f8:	01c12083          	lw	x1,28(x2)
800008fc:	01812403          	lw	x8,24(x2)
80000900:	01412483          	lw	x9,20(x2)
80000904:	01012903          	lw	x18,16(x2)
80000908:	00c12983          	lw	x19,12(x2)
8000090c:	02010113          	addi	x2,x2,32
80000910:	00008067          	jalr	x0,0(x1)

80000914 <prvResetNextTaskUnblockTime>:
80000914:	80020737          	lui	x14,0x80020
80000918:	12470713          	addi	x14,x14,292 # 80020124 <__freertos_irq_stack_top+0xffffe124>
8000091c:	00072783          	lw	x15,0(x14)
80000920:	0007a683          	lw	x13,0(x15)
80000924:	800207b7          	lui	x15,0x80020
80000928:	14478793          	addi	x15,x15,324 # 80020144 <__freertos_irq_stack_top+0xffffe144>
8000092c:	00069863          	bne	x13,x0,8000093c <prvResetNextTaskUnblockTime+0x28>
80000930:	fff00713          	addi	x14,x0,-1
80000934:	00e7a023          	sw	x14,0(x15)
80000938:	00008067          	jalr	x0,0(x1)
8000093c:	00072703          	lw	x14,0(x14)
80000940:	00c72703          	lw	x14,12(x14)
80000944:	00072703          	lw	x14,0(x14)
80000948:	fedff06f          	jal	x0,80000934 <prvResetNextTaskUnblockTime+0x20>

8000094c <vTaskSuspendAll>:
8000094c:	800207b7          	lui	x15,0x80020
80000950:	13478793          	addi	x15,x15,308 # 80020134 <__freertos_irq_stack_top+0xffffe134>
80000954:	0007a703          	lw	x14,0(x15)
80000958:	00170713          	addi	x14,x14,1
8000095c:	00e7a023          	sw	x14,0(x15)
80000960:	00008067          	jalr	x0,0(x1)

80000964 <xTaskGetTickCount>:
80000964:	800207b7          	lui	x15,0x80020
80000968:	1547a503          	lw	x10,340(x15) # 80020154 <__freertos_irq_stack_top+0xffffe154>
8000096c:	00008067          	jalr	x0,0(x1)

80000970 <xTaskIncrementTick>:
80000970:	800207b7          	lui	x15,0x80020
80000974:	1347a783          	lw	x15,308(x15) # 80020134 <__freertos_irq_stack_top+0xffffe134>
80000978:	fd010113          	addi	x2,x2,-48
8000097c:	02112623          	sw	x1,44(x2)
80000980:	02812423          	sw	x8,40(x2)
80000984:	02912223          	sw	x9,36(x2)
80000988:	03212023          	sw	x18,32(x2)
8000098c:	01312e23          	sw	x19,28(x2)
80000990:	01412c23          	sw	x20,24(x2)
80000994:	01512a23          	sw	x21,20(x2)
80000998:	01612823          	sw	x22,16(x2)
8000099c:	01712623          	sw	x23,12(x2)
800009a0:	01812423          	sw	x24,8(x2)
800009a4:	01912223          	sw	x25,4(x2)
800009a8:	1a079863          	bne	x15,x0,80000b58 <xTaskIncrementTick+0x1e8>
800009ac:	800207b7          	lui	x15,0x80020
800009b0:	15478793          	addi	x15,x15,340 # 80020154 <__freertos_irq_stack_top+0xffffe154>
800009b4:	0007aa03          	lw	x20,0(x15)
800009b8:	001a0a13          	addi	x20,x20,1
800009bc:	0147a023          	sw	x20,0(x15)
800009c0:	040a1863          	bne	x20,x0,80000a10 <xTaskIncrementTick+0xa0>
800009c4:	80020437          	lui	x8,0x80020
800009c8:	12440793          	addi	x15,x8,292 # 80020124 <__freertos_irq_stack_top+0xffffe124>
800009cc:	0007a783          	lw	x15,0(x15)
800009d0:	12440413          	addi	x8,x8,292
800009d4:	0007a783          	lw	x15,0(x15)
800009d8:	00078463          	beq	x15,x0,800009e0 <xTaskIncrementTick+0x70>
800009dc:	cf1ff0ef          	jal	x1,800006cc <vAssertCalled>
800009e0:	800207b7          	lui	x15,0x80020
800009e4:	12878793          	addi	x15,x15,296 # 80020128 <__freertos_irq_stack_top+0xffffe128>
800009e8:	00042703          	lw	x14,0(x8)
800009ec:	0007a683          	lw	x13,0(x15)
800009f0:	00d42023          	sw	x13,0(x8)
800009f4:	00e7a023          	sw	x14,0(x15)
800009f8:	800207b7          	lui	x15,0x80020
800009fc:	14878793          	addi	x15,x15,328 # 80020148 <__freertos_irq_stack_top+0xffffe148>
80000a00:	0007a703          	lw	x14,0(x15)
80000a04:	00170713          	addi	x14,x14,1
80000a08:	00e7a023          	sw	x14,0(x15)
80000a0c:	f09ff0ef          	jal	x1,80000914 <prvResetNextTaskUnblockTime>
80000a10:	800209b7          	lui	x19,0x80020
80000a14:	14498793          	addi	x15,x19,324 # 80020144 <__freertos_irq_stack_top+0xffffe144>
80000a18:	0007a783          	lw	x15,0(x15)
80000a1c:	800204b7          	lui	x9,0x80020
80000a20:	80020ab7          	lui	x21,0x80020
80000a24:	14498993          	addi	x19,x19,324
80000a28:	17448493          	addi	x9,x9,372 # 80020174 <__freertos_irq_stack_top+0xffffe174>
80000a2c:	120a8a93          	addi	x21,x21,288 # 80020120 <__freertos_irq_stack_top+0xffffe120>
80000a30:	00000413          	addi	x8,x0,0
80000a34:	08fa7263          	bgeu	x20,x15,80000ab8 <xTaskIncrementTick+0x148>
80000a38:	000aa783          	lw	x15,0(x21)
80000a3c:	02c7a703          	lw	x14,44(x15)
80000a40:	00271793          	slli	x15,x14,0x2
80000a44:	00e787b3          	add	x15,x15,x14
80000a48:	00279793          	slli	x15,x15,0x2
80000a4c:	00f487b3          	add	x15,x9,x15
80000a50:	0007a703          	lw	x14,0(x15)
80000a54:	00100793          	addi	x15,x0,1
80000a58:	00e7f463          	bgeu	x15,x14,80000a60 <xTaskIncrementTick+0xf0>
80000a5c:	00100413          	addi	x8,x0,1
80000a60:	800207b7          	lui	x15,0x80020
80000a64:	14c7a783          	lw	x15,332(x15) # 8002014c <__freertos_irq_stack_top+0xffffe14c>
80000a68:	00079463          	bne	x15,x0,80000a70 <xTaskIncrementTick+0x100>
80000a6c:	c5dff0ef          	jal	x1,800006c8 <vApplicationTickHook>
80000a70:	800207b7          	lui	x15,0x80020
80000a74:	1587a783          	lw	x15,344(x15) # 80020158 <__freertos_irq_stack_top+0xffffe158>
80000a78:	00078463          	beq	x15,x0,80000a80 <xTaskIncrementTick+0x110>
80000a7c:	00100413          	addi	x8,x0,1
80000a80:	02c12083          	lw	x1,44(x2)
80000a84:	00040513          	addi	x10,x8,0
80000a88:	02812403          	lw	x8,40(x2)
80000a8c:	02412483          	lw	x9,36(x2)
80000a90:	02012903          	lw	x18,32(x2)
80000a94:	01c12983          	lw	x19,28(x2)
80000a98:	01812a03          	lw	x20,24(x2)
80000a9c:	01412a83          	lw	x21,20(x2)
80000aa0:	01012b03          	lw	x22,16(x2)
80000aa4:	00c12b83          	lw	x23,12(x2)
80000aa8:	00812c03          	lw	x24,8(x2)
80000aac:	00412c83          	lw	x25,4(x2)
80000ab0:	03010113          	addi	x2,x2,48
80000ab4:	00008067          	jalr	x0,0(x1)
80000ab8:	80020b37          	lui	x22,0x80020
80000abc:	80020bb7          	lui	x23,0x80020
80000ac0:	00100c13          	addi	x24,x0,1
80000ac4:	124b0793          	addi	x15,x22,292 # 80020124 <__freertos_irq_stack_top+0xffffe124>
80000ac8:	0007a703          	lw	x14,0(x15)
80000acc:	00072703          	lw	x14,0(x14)
80000ad0:	00071863          	bne	x14,x0,80000ae0 <xTaskIncrementTick+0x170>
80000ad4:	fff00793          	addi	x15,x0,-1
80000ad8:	00f9a023          	sw	x15,0(x19)
80000adc:	f5dff06f          	jal	x0,80000a38 <xTaskIncrementTick+0xc8>
80000ae0:	0007a783          	lw	x15,0(x15)
80000ae4:	00c7a783          	lw	x15,12(x15)
80000ae8:	00c7a903          	lw	x18,12(x15)
80000aec:	00492783          	lw	x15,4(x18)
80000af0:	fefa64e3          	bltu	x20,x15,80000ad8 <xTaskIncrementTick+0x168>
80000af4:	00490c93          	addi	x25,x18,4
80000af8:	000c8513          	addi	x10,x25,0
80000afc:	cb9ff0ef          	jal	x1,800007b4 <uxListRemove>
80000b00:	02892783          	lw	x15,40(x18)
80000b04:	00078663          	beq	x15,x0,80000b10 <xTaskIncrementTick+0x1a0>
80000b08:	01890513          	addi	x10,x18,24
80000b0c:	ca9ff0ef          	jal	x1,800007b4 <uxListRemove>
80000b10:	02c92783          	lw	x15,44(x18)
80000b14:	13cb8693          	addi	x13,x23,316 # 8002013c <__freertos_irq_stack_top+0xffffe13c>
80000b18:	0006a603          	lw	x12,0(x13)
80000b1c:	00279513          	slli	x10,x15,0x2
80000b20:	00f50533          	add	x10,x10,x15
80000b24:	00fc1733          	sll	x14,x24,x15
80000b28:	00251513          	slli	x10,x10,0x2
80000b2c:	00c76733          	or	x14,x14,x12
80000b30:	000c8593          	addi	x11,x25,0
80000b34:	00a48533          	add	x10,x9,x10
80000b38:	00e6a023          	sw	x14,0(x13)
80000b3c:	bf9ff0ef          	jal	x1,80000734 <vListInsertEnd>
80000b40:	000aa783          	lw	x15,0(x21)
80000b44:	02c92703          	lw	x14,44(x18)
80000b48:	02c7a783          	lw	x15,44(x15)
80000b4c:	f6f76ce3          	bltu	x14,x15,80000ac4 <xTaskIncrementTick+0x154>
80000b50:	00100413          	addi	x8,x0,1
80000b54:	f71ff06f          	jal	x0,80000ac4 <xTaskIncrementTick+0x154>
80000b58:	800207b7          	lui	x15,0x80020
80000b5c:	14c78793          	addi	x15,x15,332 # 8002014c <__freertos_irq_stack_top+0xffffe14c>
80000b60:	0007a703          	lw	x14,0(x15)
80000b64:	00000413          	addi	x8,x0,0
80000b68:	00170713          	addi	x14,x14,1
80000b6c:	00e7a023          	sw	x14,0(x15)
80000b70:	b59ff0ef          	jal	x1,800006c8 <vApplicationTickHook>
80000b74:	f0dff06f          	jal	x0,80000a80 <xTaskIncrementTick+0x110>

80000b78 <vTaskSwitchContext>:
80000b78:	800207b7          	lui	x15,0x80020
80000b7c:	1347a703          	lw	x14,308(x15) # 80020134 <__freertos_irq_stack_top+0xffffe134>
80000b80:	800207b7          	lui	x15,0x80020
80000b84:	15878793          	addi	x15,x15,344 # 80020158 <__freertos_irq_stack_top+0xffffe158>
80000b88:	00070863          	beq	x14,x0,80000b98 <vTaskSwitchContext+0x20>
80000b8c:	00100713          	addi	x14,x0,1
80000b90:	00e7a023          	sw	x14,0(x15)
80000b94:	00008067          	jalr	x0,0(x1)
80000b98:	fe010113          	addi	x2,x2,-32
80000b9c:	01212823          	sw	x18,16(x2)
80000ba0:	00112e23          	sw	x1,28(x2)
80000ba4:	80020937          	lui	x18,0x80020
80000ba8:	00812c23          	sw	x8,24(x2)
80000bac:	00912a23          	sw	x9,20(x2)
80000bb0:	01312623          	sw	x19,12(x2)
80000bb4:	0007a023          	sw	x0,0(x15)
80000bb8:	12090793          	addi	x15,x18,288 # 80020120 <__freertos_irq_stack_top+0xffffe120>
80000bbc:	0007a783          	lw	x15,0(x15)
80000bc0:	a5a5a737          	lui	x14,0xa5a5a
80000bc4:	5a570713          	addi	x14,x14,1445 # a5a5a5a5 <__freertos_irq_stack_top+0x25a385a5>
80000bc8:	0307a783          	lw	x15,48(x15)
80000bcc:	12090913          	addi	x18,x18,288
80000bd0:	0007a603          	lw	x12,0(x15)
80000bd4:	00e61e63          	bne	x12,x14,80000bf0 <vTaskSwitchContext+0x78>
80000bd8:	0047a683          	lw	x13,4(x15)
80000bdc:	00c69a63          	bne	x13,x12,80000bf0 <vTaskSwitchContext+0x78>
80000be0:	0087a703          	lw	x14,8(x15)
80000be4:	00d71663          	bne	x14,x13,80000bf0 <vTaskSwitchContext+0x78>
80000be8:	00c7a783          	lw	x15,12(x15)
80000bec:	00e78a63          	beq	x15,x14,80000c00 <vTaskSwitchContext+0x88>
80000bf0:	00092503          	lw	x10,0(x18)
80000bf4:	00092583          	lw	x11,0(x18)
80000bf8:	03458593          	addi	x11,x11,52
80000bfc:	ac5ff0ef          	jal	x1,800006c0 <vApplicationStackOverflowHook>
80000c00:	800207b7          	lui	x15,0x80020
80000c04:	13c7a503          	lw	x10,316(x15) # 8002013c <__freertos_irq_stack_top+0xffffe13c>
80000c08:	01f00493          	addi	x9,x0,31
80000c0c:	80020437          	lui	x8,0x80020
80000c10:	328010ef          	jal	x1,80001f38 <__clzsi2>
80000c14:	40a489b3          	sub	x19,x9,x10
80000c18:	00299493          	slli	x9,x19,0x2
80000c1c:	01348733          	add	x14,x9,x19
80000c20:	17440793          	addi	x15,x8,372 # 80020174 <__freertos_irq_stack_top+0xffffe174>
80000c24:	00271713          	slli	x14,x14,0x2
80000c28:	00e787b3          	add	x15,x15,x14
80000c2c:	0007a783          	lw	x15,0(x15)
80000c30:	17440413          	addi	x8,x8,372
80000c34:	00079463          	bne	x15,x0,80000c3c <vTaskSwitchContext+0xc4>
80000c38:	a95ff0ef          	jal	x1,800006cc <vAssertCalled>
80000c3c:	013487b3          	add	x15,x9,x19
80000c40:	00279793          	slli	x15,x15,0x2
80000c44:	00f40733          	add	x14,x8,x15
80000c48:	00472683          	lw	x13,4(x14)
80000c4c:	00878793          	addi	x15,x15,8
80000c50:	00f407b3          	add	x15,x8,x15
80000c54:	0046a683          	lw	x13,4(x13)
80000c58:	00d72223          	sw	x13,4(x14)
80000c5c:	00f69663          	bne	x13,x15,80000c68 <vTaskSwitchContext+0xf0>
80000c60:	0046a783          	lw	x15,4(x13)
80000c64:	00f72223          	sw	x15,4(x14)
80000c68:	013484b3          	add	x9,x9,x19
80000c6c:	00249493          	slli	x9,x9,0x2
80000c70:	00940433          	add	x8,x8,x9
80000c74:	00442783          	lw	x15,4(x8)
80000c78:	01c12083          	lw	x1,28(x2)
80000c7c:	01812403          	lw	x8,24(x2)
80000c80:	00c7a783          	lw	x15,12(x15)
80000c84:	01412483          	lw	x9,20(x2)
80000c88:	00c12983          	lw	x19,12(x2)
80000c8c:	00f92023          	sw	x15,0(x18)
80000c90:	01012903          	lw	x18,16(x2)
80000c94:	02010113          	addi	x2,x2,32
80000c98:	00008067          	jalr	x0,0(x1)

80000c9c <vTaskPlaceOnEventList>:
80000c9c:	fe010113          	addi	x2,x2,-32
80000ca0:	00812c23          	sw	x8,24(x2)
80000ca4:	00112e23          	sw	x1,28(x2)
80000ca8:	00058413          	addi	x8,x11,0
80000cac:	00051863          	bne	x10,x0,80000cbc <vTaskPlaceOnEventList+0x20>
80000cb0:	00a12623          	sw	x10,12(x2)
80000cb4:	a19ff0ef          	jal	x1,800006cc <vAssertCalled>
80000cb8:	00c12503          	lw	x10,12(x2)
80000cbc:	800207b7          	lui	x15,0x80020
80000cc0:	1207a583          	lw	x11,288(x15) # 80020120 <__freertos_irq_stack_top+0xffffe120>
80000cc4:	01858593          	addi	x11,x11,24
80000cc8:	a9dff0ef          	jal	x1,80000764 <vListInsert>
80000ccc:	00040513          	addi	x10,x8,0
80000cd0:	01812403          	lw	x8,24(x2)
80000cd4:	01c12083          	lw	x1,28(x2)
80000cd8:	00100593          	addi	x11,x0,1
80000cdc:	02010113          	addi	x2,x2,32
80000ce0:	b0dff06f          	jal	x0,800007ec <prvAddCurrentTaskToDelayedList>

80000ce4 <xTaskRemoveFromEventList>:
80000ce4:	00c52783          	lw	x15,12(x10)
80000ce8:	fe010113          	addi	x2,x2,-32
80000cec:	00812c23          	sw	x8,24(x2)
80000cf0:	00c7a403          	lw	x8,12(x15)
80000cf4:	00112e23          	sw	x1,28(x2)
80000cf8:	00041463          	bne	x8,x0,80000d00 <xTaskRemoveFromEventList+0x1c>
80000cfc:	9d1ff0ef          	jal	x1,800006cc <vAssertCalled>
80000d00:	01840593          	addi	x11,x8,24
80000d04:	00058513          	addi	x10,x11,0
80000d08:	00b12623          	sw	x11,12(x2)
80000d0c:	aa9ff0ef          	jal	x1,800007b4 <uxListRemove>
80000d10:	800207b7          	lui	x15,0x80020
80000d14:	1347a783          	lw	x15,308(x15) # 80020134 <__freertos_irq_stack_top+0xffffe134>
80000d18:	00c12583          	lw	x11,12(x2)
80000d1c:	08079663          	bne	x15,x0,80000da8 <xTaskRemoveFromEventList+0xc4>
80000d20:	00440593          	addi	x11,x8,4
80000d24:	00058513          	addi	x10,x11,0
80000d28:	00b12623          	sw	x11,12(x2)
80000d2c:	a89ff0ef          	jal	x1,800007b4 <uxListRemove>
80000d30:	800206b7          	lui	x13,0x80020
80000d34:	02c42503          	lw	x10,44(x8)
80000d38:	13c68693          	addi	x13,x13,316 # 8002013c <__freertos_irq_stack_top+0xffffe13c>
80000d3c:	0006a783          	lw	x15,0(x13)
80000d40:	00100713          	addi	x14,x0,1
80000d44:	00a71733          	sll	x14,x14,x10
80000d48:	00f76733          	or	x14,x14,x15
80000d4c:	00251793          	slli	x15,x10,0x2
80000d50:	00a787b3          	add	x15,x15,x10
80000d54:	00c12583          	lw	x11,12(x2)
80000d58:	80020537          	lui	x10,0x80020
80000d5c:	00279793          	slli	x15,x15,0x2
80000d60:	17450513          	addi	x10,x10,372 # 80020174 <__freertos_irq_stack_top+0xffffe174>
80000d64:	00e6a023          	sw	x14,0(x13)
80000d68:	00f50533          	add	x10,x10,x15
80000d6c:	9c9ff0ef          	jal	x1,80000734 <vListInsertEnd>
80000d70:	800207b7          	lui	x15,0x80020
80000d74:	1207a783          	lw	x15,288(x15) # 80020120 <__freertos_irq_stack_top+0xffffe120>
80000d78:	02c42703          	lw	x14,44(x8)
80000d7c:	00000513          	addi	x10,x0,0
80000d80:	02c7a783          	lw	x15,44(x15)
80000d84:	00e7fa63          	bgeu	x15,x14,80000d98 <xTaskRemoveFromEventList+0xb4>
80000d88:	800207b7          	lui	x15,0x80020
80000d8c:	00100713          	addi	x14,x0,1
80000d90:	14e7ac23          	sw	x14,344(x15) # 80020158 <__freertos_irq_stack_top+0xffffe158>
80000d94:	00100513          	addi	x10,x0,1
80000d98:	01c12083          	lw	x1,28(x2)
80000d9c:	01812403          	lw	x8,24(x2)
80000da0:	02010113          	addi	x2,x2,32
80000da4:	00008067          	jalr	x0,0(x1)
80000da8:	91818513          	addi	x10,x3,-1768 # 80020228 <xPendingReadyList>
80000dac:	fc1ff06f          	jal	x0,80000d6c <xTaskRemoveFromEventList+0x88>

80000db0 <vTaskInternalSetTimeOutState>:
80000db0:	800207b7          	lui	x15,0x80020
80000db4:	1487a783          	lw	x15,328(x15) # 80020148 <__freertos_irq_stack_top+0xffffe148>
80000db8:	00f52023          	sw	x15,0(x10)
80000dbc:	800207b7          	lui	x15,0x80020
80000dc0:	1547a783          	lw	x15,340(x15) # 80020154 <__freertos_irq_stack_top+0xffffe154>
80000dc4:	00f52223          	sw	x15,4(x10)
80000dc8:	00008067          	jalr	x0,0(x1)

80000dcc <vTaskMissedYield>:
80000dcc:	800207b7          	lui	x15,0x80020
80000dd0:	00100713          	addi	x14,x0,1
80000dd4:	14e7ac23          	sw	x14,344(x15) # 80020158 <__freertos_irq_stack_top+0xffffe158>
80000dd8:	00008067          	jalr	x0,0(x1)

80000ddc <xTaskPriorityDisinherit>:
80000ddc:	02051063          	bne	x10,x0,80000dfc <xTaskPriorityDisinherit+0x20>
80000de0:	00000513          	addi	x10,x0,0
80000de4:	00008067          	jalr	x0,0(x1)
80000de8:	00000513          	addi	x10,x0,0
80000dec:	01c12083          	lw	x1,28(x2)
80000df0:	01812403          	lw	x8,24(x2)
80000df4:	02010113          	addi	x2,x2,32
80000df8:	00008067          	jalr	x0,0(x1)
80000dfc:	800207b7          	lui	x15,0x80020
80000e00:	1207a783          	lw	x15,288(x15) # 80020120 <__freertos_irq_stack_top+0xffffe120>
80000e04:	fe010113          	addi	x2,x2,-32
80000e08:	00812c23          	sw	x8,24(x2)
80000e0c:	00112e23          	sw	x1,28(x2)
80000e10:	00050413          	addi	x8,x10,0
80000e14:	00a78463          	beq	x15,x10,80000e1c <xTaskPriorityDisinherit+0x40>
80000e18:	8b5ff0ef          	jal	x1,800006cc <vAssertCalled>
80000e1c:	04c42783          	lw	x15,76(x8)
80000e20:	00079463          	bne	x15,x0,80000e28 <xTaskPriorityDisinherit+0x4c>
80000e24:	8a9ff0ef          	jal	x1,800006cc <vAssertCalled>
80000e28:	04c42783          	lw	x15,76(x8)
80000e2c:	02c42683          	lw	x13,44(x8)
80000e30:	04842703          	lw	x14,72(x8)
80000e34:	fff78793          	addi	x15,x15,-1
80000e38:	04f42623          	sw	x15,76(x8)
80000e3c:	fae686e3          	beq	x13,x14,80000de8 <xTaskPriorityDisinherit+0xc>
80000e40:	fa0794e3          	bne	x15,x0,80000de8 <xTaskPriorityDisinherit+0xc>
80000e44:	00440593          	addi	x11,x8,4
80000e48:	00058513          	addi	x10,x11,0
80000e4c:	00b12623          	sw	x11,12(x2)
80000e50:	965ff0ef          	jal	x1,800007b4 <uxListRemove>
80000e54:	80020737          	lui	x14,0x80020
80000e58:	00c12583          	lw	x11,12(x2)
80000e5c:	13c70713          	addi	x14,x14,316 # 8002013c <__freertos_irq_stack_top+0xffffe13c>
80000e60:	02051063          	bne	x10,x0,80000e80 <xTaskPriorityDisinherit+0xa4>
80000e64:	02c42603          	lw	x12,44(x8)
80000e68:	00072683          	lw	x13,0(x14)
80000e6c:	00100793          	addi	x15,x0,1
80000e70:	00c797b3          	sll	x15,x15,x12
80000e74:	fff7c793          	xori	x15,x15,-1
80000e78:	00d7f7b3          	and	x15,x15,x13
80000e7c:	00f72023          	sw	x15,0(x14)
80000e80:	04842503          	lw	x10,72(x8)
80000e84:	00700793          	addi	x15,x0,7
80000e88:	00072683          	lw	x13,0(x14)
80000e8c:	40a787b3          	sub	x15,x15,x10
80000e90:	00f42c23          	sw	x15,24(x8)
80000e94:	00100793          	addi	x15,x0,1
80000e98:	00a797b3          	sll	x15,x15,x10
80000e9c:	00d7e7b3          	or	x15,x15,x13
80000ea0:	00f72023          	sw	x15,0(x14)
80000ea4:	00251793          	slli	x15,x10,0x2
80000ea8:	02a42623          	sw	x10,44(x8)
80000eac:	00a787b3          	add	x15,x15,x10
80000eb0:	80020537          	lui	x10,0x80020
80000eb4:	00279793          	slli	x15,x15,0x2
80000eb8:	17450513          	addi	x10,x10,372 # 80020174 <__freertos_irq_stack_top+0xffffe174>
80000ebc:	00f50533          	add	x10,x10,x15
80000ec0:	875ff0ef          	jal	x1,80000734 <vListInsertEnd>
80000ec4:	00100513          	addi	x10,x0,1
80000ec8:	f25ff06f          	jal	x0,80000dec <xTaskPriorityDisinherit+0x10>

80000ecc <vTaskEnterCritical>:
80000ecc:	30047073          	csrrci	x0,mstatus,8
80000ed0:	800207b7          	lui	x15,0x80020
80000ed4:	1507a783          	lw	x15,336(x15) # 80020150 <__freertos_irq_stack_top+0xffffe150>
80000ed8:	02078063          	beq	x15,x0,80000ef8 <vTaskEnterCritical+0x2c>
80000edc:	800207b7          	lui	x15,0x80020
80000ee0:	12078793          	addi	x15,x15,288 # 80020120 <__freertos_irq_stack_top+0xffffe120>
80000ee4:	0007a683          	lw	x13,0(x15)
80000ee8:	0007a783          	lw	x15,0(x15)
80000eec:	0446a703          	lw	x14,68(x13)
80000ef0:	00170713          	addi	x14,x14,1
80000ef4:	04e6a223          	sw	x14,68(x13)
80000ef8:	00008067          	jalr	x0,0(x1)

80000efc <vTaskExitCritical>:
80000efc:	800207b7          	lui	x15,0x80020
80000f00:	1507a783          	lw	x15,336(x15) # 80020150 <__freertos_irq_stack_top+0xffffe150>
80000f04:	02078c63          	beq	x15,x0,80000f3c <vTaskExitCritical+0x40>
80000f08:	800207b7          	lui	x15,0x80020
80000f0c:	12078793          	addi	x15,x15,288 # 80020120 <__freertos_irq_stack_top+0xffffe120>
80000f10:	0007a703          	lw	x14,0(x15)
80000f14:	04472703          	lw	x14,68(x14)
80000f18:	02070263          	beq	x14,x0,80000f3c <vTaskExitCritical+0x40>
80000f1c:	0007a683          	lw	x13,0(x15)
80000f20:	0007a783          	lw	x15,0(x15)
80000f24:	0446a703          	lw	x14,68(x13)
80000f28:	fff70713          	addi	x14,x14,-1
80000f2c:	04e6a223          	sw	x14,68(x13)
80000f30:	0447a783          	lw	x15,68(x15)
80000f34:	00079463          	bne	x15,x0,80000f3c <vTaskExitCritical+0x40>
80000f38:	30046073          	csrrsi	x0,mstatus,8
80000f3c:	00008067          	jalr	x0,0(x1)

80000f40 <xTaskCreate>:
80000f40:	fd010113          	addi	x2,x2,-48
80000f44:	01312e23          	sw	x19,28(x2)
80000f48:	00261993          	slli	x19,x12,0x2
80000f4c:	01612823          	sw	x22,16(x2)
80000f50:	00050b13          	addi	x22,x10,0
80000f54:	00098513          	addi	x10,x19,0
80000f58:	02912223          	sw	x9,36(x2)
80000f5c:	03212023          	sw	x18,32(x2)
80000f60:	01512a23          	sw	x21,20(x2)
80000f64:	01712623          	sw	x23,12(x2)
80000f68:	02112623          	sw	x1,44(x2)
80000f6c:	02812423          	sw	x8,40(x2)
80000f70:	01412c23          	sw	x20,24(x2)
80000f74:	01812423          	sw	x24,8(x2)
80000f78:	00058913          	addi	x18,x11,0
80000f7c:	00068b93          	addi	x23,x13,0
80000f80:	00070493          	addi	x9,x14,0
80000f84:	00078a93          	addi	x21,x15,0
80000f88:	5d1000ef          	jal	x1,80001d58 <pvPortMalloc>
80000f8c:	04050263          	beq	x10,x0,80000fd0 <xTaskCreate+0x90>
80000f90:	00050a13          	addi	x20,x10,0
80000f94:	05800513          	addi	x10,x0,88
80000f98:	5c1000ef          	jal	x1,80001d58 <pvPortMalloc>
80000f9c:	00050413          	addi	x8,x10,0
80000fa0:	02050463          	beq	x10,x0,80000fc8 <xTaskCreate+0x88>
80000fa4:	03452823          	sw	x20,48(x10)
80000fa8:	00098613          	addi	x12,x19,0
80000fac:	0a500593          	addi	x11,x0,165
80000fb0:	000a0513          	addi	x10,x20,0
80000fb4:	20c010ef          	jal	x1,800021c0 <memset>
80000fb8:	03042c03          	lw	x24,48(x8)
80000fbc:	00091e63          	bne	x18,x0,80000fd8 <xTaskCreate+0x98>
80000fc0:	02040a23          	sb	x0,52(x8)
80000fc4:	03c0006f          	jal	x0,80001000 <xTaskCreate+0xc0>
80000fc8:	000a0513          	addi	x10,x20,0
80000fcc:	641000ef          	jal	x1,80001e0c <vPortFree>
80000fd0:	fff00513          	addi	x10,x0,-1
80000fd4:	1cc0006f          	jal	x0,800011a0 <xTaskCreate+0x260>
80000fd8:	00090713          	addi	x14,x18,0
80000fdc:	03440793          	addi	x15,x8,52
80000fe0:	01090613          	addi	x12,x18,16
80000fe4:	00074683          	lbu	x13,0(x14)
80000fe8:	00d78023          	sb	x13,0(x15)
80000fec:	00068863          	beq	x13,x0,80000ffc <xTaskCreate+0xbc>
80000ff0:	00170713          	addi	x14,x14,1
80000ff4:	00178793          	addi	x15,x15,1
80000ff8:	fec716e3          	bne	x14,x12,80000fe4 <xTaskCreate+0xa4>
80000ffc:	040401a3          	sb	x0,67(x8)
80001000:	00600793          	addi	x15,x0,6
80001004:	0097f463          	bgeu	x15,x9,8000100c <xTaskCreate+0xcc>
80001008:	ec4ff0ef          	jal	x1,800006cc <vAssertCalled>
8000100c:	00600793          	addi	x15,x0,6
80001010:	0097f463          	bgeu	x15,x9,80001018 <xTaskCreate+0xd8>
80001014:	00600493          	addi	x9,x0,6
80001018:	00440a13          	addi	x20,x8,4
8000101c:	02942623          	sw	x9,44(x8)
80001020:	04942423          	sw	x9,72(x8)
80001024:	000a0513          	addi	x10,x20,0
80001028:	04042623          	sw	x0,76(x8)
8000102c:	f00ff0ef          	jal	x1,8000072c <vListInitialiseItem>
80001030:	01840513          	addi	x10,x8,24
80001034:	ef8ff0ef          	jal	x1,8000072c <vListInitialiseItem>
80001038:	00700713          	addi	x14,x0,7
8000103c:	ffc98993          	addi	x19,x19,-4
80001040:	409704b3          	sub	x9,x14,x9
80001044:	013c09b3          	add	x19,x24,x19
80001048:	00842823          	sw	x8,16(x8)
8000104c:	00942c23          	sw	x9,24(x8)
80001050:	02842223          	sw	x8,36(x8)
80001054:	04042223          	sw	x0,68(x8)
80001058:	04040823          	sb	x0,80(x8)
8000105c:	040408a3          	sb	x0,81(x8)
80001060:	04040923          	sb	x0,82(x8)
80001064:	040409a3          	sb	x0,83(x8)
80001068:	04040a23          	sb	x0,84(x8)
8000106c:	04040aa3          	sb	x0,85(x8)
80001070:	000b8613          	addi	x12,x23,0
80001074:	000b0593          	addi	x11,x22,0
80001078:	ff09f513          	andi	x10,x19,-16
8000107c:	c84ff0ef          	jal	x1,80000500 <pxPortInitialiseStack>
80001080:	00a42023          	sw	x10,0(x8)
80001084:	000a8463          	beq	x21,x0,8000108c <xTaskCreate+0x14c>
80001088:	008aa023          	sw	x8,0(x21)
8000108c:	e41ff0ef          	jal	x1,80000ecc <vTaskEnterCritical>
80001090:	800207b7          	lui	x15,0x80020
80001094:	12c78793          	addi	x15,x15,300 # 8002012c <__freertos_irq_stack_top+0xffffe12c>
80001098:	0007a703          	lw	x14,0(x15)
8000109c:	800204b7          	lui	x9,0x80020
800010a0:	80020937          	lui	x18,0x80020
800010a4:	00170713          	addi	x14,x14,1
800010a8:	00e7a023          	sw	x14,0(x15)
800010ac:	12048713          	addi	x14,x9,288 # 80020120 <__freertos_irq_stack_top+0xffffe120>
800010b0:	00072703          	lw	x14,0(x14)
800010b4:	12048493          	addi	x9,x9,288
800010b8:	17490993          	addi	x19,x18,372 # 80020174 <__freertos_irq_stack_top+0xffffe174>
800010bc:	10071a63          	bne	x14,x0,800011d0 <xTaskCreate+0x290>
800010c0:	0084a023          	sw	x8,0(x9)
800010c4:	0007a703          	lw	x14,0(x15)
800010c8:	00100793          	addi	x15,x0,1
800010cc:	06f71063          	bne	x14,x15,8000112c <xTaskCreate+0x1ec>
800010d0:	17490913          	addi	x18,x18,372
800010d4:	08c98a93          	addi	x21,x19,140
800010d8:	00090513          	addi	x10,x18,0
800010dc:	01490913          	addi	x18,x18,20
800010e0:	e2cff0ef          	jal	x1,8000070c <vListInitialise>
800010e4:	ff2a9ae3          	bne	x21,x18,800010d8 <xTaskCreate+0x198>
800010e8:	80020537          	lui	x10,0x80020
800010ec:	20050a93          	addi	x21,x10,512 # 80020200 <__freertos_irq_stack_top+0xffffe200>
800010f0:	20050513          	addi	x10,x10,512
800010f4:	e18ff0ef          	jal	x1,8000070c <vListInitialise>
800010f8:	90418913          	addi	x18,x3,-1788 # 80020214 <xDelayedTaskList2>
800010fc:	90418513          	addi	x10,x3,-1788 # 80020214 <xDelayedTaskList2>
80001100:	e0cff0ef          	jal	x1,8000070c <vListInitialise>
80001104:	91818513          	addi	x10,x3,-1768 # 80020228 <xPendingReadyList>
80001108:	e04ff0ef          	jal	x1,8000070c <vListInitialise>
8000110c:	94018513          	addi	x10,x3,-1728 # 80020250 <xTasksWaitingTermination>
80001110:	dfcff0ef          	jal	x1,8000070c <vListInitialise>
80001114:	92c18513          	addi	x10,x3,-1748 # 8002023c <xSuspendedTaskList>
80001118:	df4ff0ef          	jal	x1,8000070c <vListInitialise>
8000111c:	800207b7          	lui	x15,0x80020
80001120:	1357a223          	sw	x21,292(x15) # 80020124 <__freertos_irq_stack_top+0xffffe124>
80001124:	800207b7          	lui	x15,0x80020
80001128:	1327a423          	sw	x18,296(x15) # 80020128 <__freertos_irq_stack_top+0xffffe128>
8000112c:	800207b7          	lui	x15,0x80020
80001130:	13878793          	addi	x15,x15,312 # 80020138 <__freertos_irq_stack_top+0xffffe138>
80001134:	0007a703          	lw	x14,0(x15)
80001138:	02c42683          	lw	x13,44(x8)
8000113c:	000a0593          	addi	x11,x20,0
80001140:	00170713          	addi	x14,x14,1
80001144:	00e7a023          	sw	x14,0(x15)
80001148:	80020737          	lui	x14,0x80020
8000114c:	13c70713          	addi	x14,x14,316 # 8002013c <__freertos_irq_stack_top+0xffffe13c>
80001150:	00072603          	lw	x12,0(x14)
80001154:	00269513          	slli	x10,x13,0x2
80001158:	00d50533          	add	x10,x10,x13
8000115c:	00100793          	addi	x15,x0,1
80001160:	00d797b3          	sll	x15,x15,x13
80001164:	00251513          	slli	x10,x10,0x2
80001168:	00c7e7b3          	or	x15,x15,x12
8000116c:	00a98533          	add	x10,x19,x10
80001170:	00f72023          	sw	x15,0(x14)
80001174:	dc0ff0ef          	jal	x1,80000734 <vListInsertEnd>
80001178:	d85ff0ef          	jal	x1,80000efc <vTaskExitCritical>
8000117c:	800207b7          	lui	x15,0x80020
80001180:	1507a783          	lw	x15,336(x15) # 80020150 <__freertos_irq_stack_top+0xffffe150>
80001184:	00100513          	addi	x10,x0,1
80001188:	00078c63          	beq	x15,x0,800011a0 <xTaskCreate+0x260>
8000118c:	0004a783          	lw	x15,0(x9)
80001190:	02c7a703          	lw	x14,44(x15)
80001194:	02c42783          	lw	x15,44(x8)
80001198:	00f77463          	bgeu	x14,x15,800011a0 <xTaskCreate+0x260>
8000119c:	00000073          	ecall
800011a0:	02c12083          	lw	x1,44(x2)
800011a4:	02812403          	lw	x8,40(x2)
800011a8:	02412483          	lw	x9,36(x2)
800011ac:	02012903          	lw	x18,32(x2)
800011b0:	01c12983          	lw	x19,28(x2)
800011b4:	01812a03          	lw	x20,24(x2)
800011b8:	01412a83          	lw	x21,20(x2)
800011bc:	01012b03          	lw	x22,16(x2)
800011c0:	00c12b83          	lw	x23,12(x2)
800011c4:	00812c03          	lw	x24,8(x2)
800011c8:	03010113          	addi	x2,x2,48
800011cc:	00008067          	jalr	x0,0(x1)
800011d0:	800207b7          	lui	x15,0x80020
800011d4:	1507a783          	lw	x15,336(x15) # 80020150 <__freertos_irq_stack_top+0xffffe150>
800011d8:	f4079ae3          	bne	x15,x0,8000112c <xTaskCreate+0x1ec>
800011dc:	0004a783          	lw	x15,0(x9)
800011e0:	02c42703          	lw	x14,44(x8)
800011e4:	02c7a783          	lw	x15,44(x15)
800011e8:	f4f762e3          	bltu	x14,x15,8000112c <xTaskCreate+0x1ec>
800011ec:	0084a023          	sw	x8,0(x9)
800011f0:	f3dff06f          	jal	x0,8000112c <xTaskCreate+0x1ec>

800011f4 <vTaskStartScheduler>:
800011f4:	800207b7          	lui	x15,0x80020
800011f8:	800205b7          	lui	x11,0x80020
800011fc:	80001537          	lui	x10,0x80001
80001200:	ff010113          	addi	x2,x2,-16
80001204:	14078793          	addi	x15,x15,320 # 80020140 <__freertos_irq_stack_top+0xffffe140>
80001208:	00000713          	addi	x14,x0,0
8000120c:	00000693          	addi	x13,x0,0
80001210:	07800613          	addi	x12,x0,120
80001214:	00058593          	addi	x11,x11,0 # 80020000 <__freertos_irq_stack_top+0xffffe000>
80001218:	27450513          	addi	x10,x10,628 # 80001274 <__freertos_irq_stack_top+0xfffdf274>
8000121c:	00112623          	sw	x1,12(x2)
80001220:	d21ff0ef          	jal	x1,80000f40 <xTaskCreate>
80001224:	00100793          	addi	x15,x0,1
80001228:	02f51e63          	bne	x10,x15,80001264 <vTaskStartScheduler+0x70>
8000122c:	30047073          	csrrci	x0,mstatus,8
80001230:	800207b7          	lui	x15,0x80020
80001234:	fff00713          	addi	x14,x0,-1
80001238:	14e7a223          	sw	x14,324(x15) # 80020144 <__freertos_irq_stack_top+0xffffe144>
8000123c:	800207b7          	lui	x15,0x80020
80001240:	14a7a823          	sw	x10,336(x15) # 80020150 <__freertos_irq_stack_top+0xffffe150>
80001244:	800207b7          	lui	x15,0x80020
80001248:	1407aa23          	sw	x0,340(x15) # 80020154 <__freertos_irq_stack_top+0xffffe154>
8000124c:	2b1000ef          	jal	x1,80001cfc <xPortStartScheduler>
80001250:	00c12083          	lw	x1,12(x2)
80001254:	800207b7          	lui	x15,0x80020
80001258:	1107a783          	lw	x15,272(x15) # 80020110 <__freertos_irq_stack_top+0xffffe110>
8000125c:	01010113          	addi	x2,x2,16
80001260:	00008067          	jalr	x0,0(x1)
80001264:	fff00793          	addi	x15,x0,-1
80001268:	fef514e3          	bne	x10,x15,80001250 <vTaskStartScheduler+0x5c>
8000126c:	c60ff0ef          	jal	x1,800006cc <vAssertCalled>
80001270:	fe1ff06f          	jal	x0,80001250 <vTaskStartScheduler+0x5c>

80001274 <prvIdleTask>:
80001274:	fe010113          	addi	x2,x2,-32
80001278:	00812c23          	sw	x8,24(x2)
8000127c:	01312623          	sw	x19,12(x2)
80001280:	01412423          	sw	x20,8(x2)
80001284:	00112e23          	sw	x1,28(x2)
80001288:	00912a23          	sw	x9,20(x2)
8000128c:	01212823          	sw	x18,16(x2)
80001290:	800209b7          	lui	x19,0x80020
80001294:	94018413          	addi	x8,x3,-1728 # 80020250 <xTasksWaitingTermination>
80001298:	80020a37          	lui	x20,0x80020
8000129c:	13098493          	addi	x9,x19,304 # 80020130 <__freertos_irq_stack_top+0xffffe130>
800012a0:	0004a783          	lw	x15,0(x9)
800012a4:	fe078ce3          	beq	x15,x0,8000129c <prvIdleTask+0x28>
800012a8:	c25ff0ef          	jal	x1,80000ecc <vTaskEnterCritical>
800012ac:	00c42783          	lw	x15,12(x8)
800012b0:	00c7a903          	lw	x18,12(x15)
800012b4:	00490513          	addi	x10,x18,4
800012b8:	cfcff0ef          	jal	x1,800007b4 <uxListRemove>
800012bc:	12ca0713          	addi	x14,x20,300 # 8002012c <__freertos_irq_stack_top+0xffffe12c>
800012c0:	00072783          	lw	x15,0(x14)
800012c4:	fff78793          	addi	x15,x15,-1
800012c8:	00f72023          	sw	x15,0(x14)
800012cc:	0004a783          	lw	x15,0(x9)
800012d0:	fff78793          	addi	x15,x15,-1
800012d4:	00f4a023          	sw	x15,0(x9)
800012d8:	c25ff0ef          	jal	x1,80000efc <vTaskExitCritical>
800012dc:	03092503          	lw	x10,48(x18)
800012e0:	32d000ef          	jal	x1,80001e0c <vPortFree>
800012e4:	00090513          	addi	x10,x18,0
800012e8:	325000ef          	jal	x1,80001e0c <vPortFree>
800012ec:	fb1ff06f          	jal	x0,8000129c <prvIdleTask+0x28>

800012f0 <xTaskResumeAll>:
800012f0:	fd010113          	addi	x2,x2,-48
800012f4:	02812423          	sw	x8,40(x2)
800012f8:	80020437          	lui	x8,0x80020
800012fc:	13440793          	addi	x15,x8,308 # 80020134 <__freertos_irq_stack_top+0xffffe134>
80001300:	0007a783          	lw	x15,0(x15)
80001304:	02112623          	sw	x1,44(x2)
80001308:	02912223          	sw	x9,36(x2)
8000130c:	03212023          	sw	x18,32(x2)
80001310:	01312e23          	sw	x19,28(x2)
80001314:	01412c23          	sw	x20,24(x2)
80001318:	01512a23          	sw	x21,20(x2)
8000131c:	01612823          	sw	x22,16(x2)
80001320:	13440413          	addi	x8,x8,308
80001324:	00079463          	bne	x15,x0,8000132c <xTaskResumeAll+0x3c>
80001328:	ba4ff0ef          	jal	x1,800006cc <vAssertCalled>
8000132c:	ba1ff0ef          	jal	x1,80000ecc <vTaskEnterCritical>
80001330:	00042783          	lw	x15,0(x8)
80001334:	fff78793          	addi	x15,x15,-1
80001338:	00f42023          	sw	x15,0(x8)
8000133c:	00042783          	lw	x15,0(x8)
80001340:	02078e63          	beq	x15,x0,8000137c <xTaskResumeAll+0x8c>
80001344:	00000513          	addi	x10,x0,0
80001348:	00a12623          	sw	x10,12(x2)
8000134c:	bb1ff0ef          	jal	x1,80000efc <vTaskExitCritical>
80001350:	02c12083          	lw	x1,44(x2)
80001354:	02812403          	lw	x8,40(x2)
80001358:	00c12503          	lw	x10,12(x2)
8000135c:	02412483          	lw	x9,36(x2)
80001360:	02012903          	lw	x18,32(x2)
80001364:	01c12983          	lw	x19,28(x2)
80001368:	01812a03          	lw	x20,24(x2)
8000136c:	01412a83          	lw	x21,20(x2)
80001370:	01012b03          	lw	x22,16(x2)
80001374:	03010113          	addi	x2,x2,48
80001378:	00008067          	jalr	x0,0(x1)
8000137c:	800207b7          	lui	x15,0x80020
80001380:	12c7a783          	lw	x15,300(x15) # 8002012c <__freertos_irq_stack_top+0xffffe12c>
80001384:	fc0780e3          	beq	x15,x0,80001344 <xTaskResumeAll+0x54>
80001388:	80020937          	lui	x18,0x80020
8000138c:	00000413          	addi	x8,x0,0
80001390:	91818493          	addi	x9,x3,-1768 # 80020228 <xPendingReadyList>
80001394:	80020a37          	lui	x20,0x80020
80001398:	00100993          	addi	x19,x0,1
8000139c:	17490913          	addi	x18,x18,372 # 80020174 <__freertos_irq_stack_top+0xffffe174>
800013a0:	80020ab7          	lui	x21,0x80020
800013a4:	80020b37          	lui	x22,0x80020
800013a8:	0700006f          	jal	x0,80001418 <xTaskResumeAll+0x128>
800013ac:	00c4a783          	lw	x15,12(x9)
800013b0:	00c7a403          	lw	x8,12(x15)
800013b4:	01840513          	addi	x10,x8,24
800013b8:	bfcff0ef          	jal	x1,800007b4 <uxListRemove>
800013bc:	00440593          	addi	x11,x8,4
800013c0:	00058513          	addi	x10,x11,0
800013c4:	00b12623          	sw	x11,12(x2)
800013c8:	becff0ef          	jal	x1,800007b4 <uxListRemove>
800013cc:	02c42783          	lw	x15,44(x8)
800013d0:	13ca0693          	addi	x13,x20,316 # 8002013c <__freertos_irq_stack_top+0xffffe13c>
800013d4:	0006a603          	lw	x12,0(x13)
800013d8:	00279513          	slli	x10,x15,0x2
800013dc:	00f50533          	add	x10,x10,x15
800013e0:	00c12583          	lw	x11,12(x2)
800013e4:	00f99733          	sll	x14,x19,x15
800013e8:	00251513          	slli	x10,x10,0x2
800013ec:	00c76733          	or	x14,x14,x12
800013f0:	00a90533          	add	x10,x18,x10
800013f4:	00e6a023          	sw	x14,0(x13)
800013f8:	b3cff0ef          	jal	x1,80000734 <vListInsertEnd>
800013fc:	120a8793          	addi	x15,x21,288 # 80020120 <__freertos_irq_stack_top+0xffffe120>
80001400:	0007a783          	lw	x15,0(x15)
80001404:	02c42703          	lw	x14,44(x8)
80001408:	02c7a783          	lw	x15,44(x15)
8000140c:	00f76663          	bltu	x14,x15,80001418 <xTaskResumeAll+0x128>
80001410:	158b0793          	addi	x15,x22,344 # 80020158 <__freertos_irq_stack_top+0xffffe158>
80001414:	0137a023          	sw	x19,0(x15)
80001418:	0004a783          	lw	x15,0(x9)
8000141c:	f80798e3          	bne	x15,x0,800013ac <xTaskResumeAll+0xbc>
80001420:	00040463          	beq	x8,x0,80001428 <xTaskResumeAll+0x138>
80001424:	cf0ff0ef          	jal	x1,80000914 <prvResetNextTaskUnblockTime>
80001428:	800207b7          	lui	x15,0x80020
8000142c:	14c78713          	addi	x14,x15,332 # 8002014c <__freertos_irq_stack_top+0xffffe14c>
80001430:	00072483          	lw	x9,0(x14)
80001434:	14c78413          	addi	x8,x15,332
80001438:	02048463          	beq	x9,x0,80001460 <xTaskResumeAll+0x170>
8000143c:	80020937          	lui	x18,0x80020
80001440:	00100993          	addi	x19,x0,1
80001444:	d2cff0ef          	jal	x1,80000970 <xTaskIncrementTick>
80001448:	00050663          	beq	x10,x0,80001454 <xTaskResumeAll+0x164>
8000144c:	15890793          	addi	x15,x18,344 # 80020158 <__freertos_irq_stack_top+0xffffe158>
80001450:	0137a023          	sw	x19,0(x15)
80001454:	fff48493          	addi	x9,x9,-1
80001458:	fe0496e3          	bne	x9,x0,80001444 <xTaskResumeAll+0x154>
8000145c:	00042023          	sw	x0,0(x8)
80001460:	800207b7          	lui	x15,0x80020
80001464:	1587a783          	lw	x15,344(x15) # 80020158 <__freertos_irq_stack_top+0xffffe158>
80001468:	ec078ee3          	beq	x15,x0,80001344 <xTaskResumeAll+0x54>
8000146c:	00000073          	ecall
80001470:	00100513          	addi	x10,x0,1
80001474:	ed5ff06f          	jal	x0,80001348 <xTaskResumeAll+0x58>

80001478 <xTaskDelayUntil>:
80001478:	ff010113          	addi	x2,x2,-16
8000147c:	00812423          	sw	x8,8(x2)
80001480:	00912223          	sw	x9,4(x2)
80001484:	00112623          	sw	x1,12(x2)
80001488:	00050493          	addi	x9,x10,0
8000148c:	00058413          	addi	x8,x11,0
80001490:	00051463          	bne	x10,x0,80001498 <xTaskDelayUntil+0x20>
80001494:	a38ff0ef          	jal	x1,800006cc <vAssertCalled>
80001498:	00041463          	bne	x8,x0,800014a0 <xTaskDelayUntil+0x28>
8000149c:	a30ff0ef          	jal	x1,800006cc <vAssertCalled>
800014a0:	800207b7          	lui	x15,0x80020
800014a4:	1347a783          	lw	x15,308(x15) # 80020134 <__freertos_irq_stack_top+0xffffe134>
800014a8:	00078463          	beq	x15,x0,800014b0 <xTaskDelayUntil+0x38>
800014ac:	a20ff0ef          	jal	x1,800006cc <vAssertCalled>
800014b0:	c9cff0ef          	jal	x1,8000094c <vTaskSuspendAll>
800014b4:	0004a703          	lw	x14,0(x9)
800014b8:	800207b7          	lui	x15,0x80020
800014bc:	1547a503          	lw	x10,340(x15) # 80020154 <__freertos_irq_stack_top+0xffffe154>
800014c0:	00870433          	add	x8,x14,x8
800014c4:	0084a023          	sw	x8,0(x9)
800014c8:	02e57863          	bgeu	x10,x14,800014f8 <xTaskDelayUntil+0x80>
800014cc:	02e46863          	bltu	x8,x14,800014fc <xTaskDelayUntil+0x84>
800014d0:	00000413          	addi	x8,x0,0
800014d4:	e1dff0ef          	jal	x1,800012f0 <xTaskResumeAll>
800014d8:	00051463          	bne	x10,x0,800014e0 <xTaskDelayUntil+0x68>
800014dc:	00000073          	ecall
800014e0:	00c12083          	lw	x1,12(x2)
800014e4:	00040513          	addi	x10,x8,0
800014e8:	00812403          	lw	x8,8(x2)
800014ec:	00412483          	lw	x9,4(x2)
800014f0:	01010113          	addi	x2,x2,16
800014f4:	00008067          	jalr	x0,0(x1)
800014f8:	00e46463          	bltu	x8,x14,80001500 <xTaskDelayUntil+0x88>
800014fc:	fc857ae3          	bgeu	x10,x8,800014d0 <xTaskDelayUntil+0x58>
80001500:	40a40533          	sub	x10,x8,x10
80001504:	00000593          	addi	x11,x0,0
80001508:	ae4ff0ef          	jal	x1,800007ec <prvAddCurrentTaskToDelayedList>
8000150c:	00100413          	addi	x8,x0,1
80001510:	fc5ff06f          	jal	x0,800014d4 <xTaskDelayUntil+0x5c>

80001514 <xTaskCheckForTimeOut>:
80001514:	fe010113          	addi	x2,x2,-32
80001518:	00812c23          	sw	x8,24(x2)
8000151c:	00912a23          	sw	x9,20(x2)
80001520:	00112e23          	sw	x1,28(x2)
80001524:	00050413          	addi	x8,x10,0
80001528:	00058493          	addi	x9,x11,0
8000152c:	00051463          	bne	x10,x0,80001534 <xTaskCheckForTimeOut+0x20>
80001530:	99cff0ef          	jal	x1,800006cc <vAssertCalled>
80001534:	00049463          	bne	x9,x0,8000153c <xTaskCheckForTimeOut+0x28>
80001538:	994ff0ef          	jal	x1,800006cc <vAssertCalled>
8000153c:	991ff0ef          	jal	x1,80000ecc <vTaskEnterCritical>
80001540:	80020737          	lui	x14,0x80020
80001544:	800207b7          	lui	x15,0x80020
80001548:	12070713          	addi	x14,x14,288 # 80020120 <__freertos_irq_stack_top+0xffffe120>
8000154c:	1547a683          	lw	x13,340(x15) # 80020154 <__freertos_irq_stack_top+0xffffe154>
80001550:	00072783          	lw	x15,0(x14)
80001554:	0557c783          	lbu	x15,85(x15)
80001558:	02078863          	beq	x15,x0,80001588 <xTaskCheckForTimeOut+0x74>
8000155c:	00072783          	lw	x15,0(x14)
80001560:	04078aa3          	sb	x0,85(x15)
80001564:	00100513          	addi	x10,x0,1
80001568:	00a12623          	sw	x10,12(x2)
8000156c:	991ff0ef          	jal	x1,80000efc <vTaskExitCritical>
80001570:	01c12083          	lw	x1,28(x2)
80001574:	01812403          	lw	x8,24(x2)
80001578:	00c12503          	lw	x10,12(x2)
8000157c:	01412483          	lw	x9,20(x2)
80001580:	02010113          	addi	x2,x2,32
80001584:	00008067          	jalr	x0,0(x1)
80001588:	0004a783          	lw	x15,0(x9)
8000158c:	fff00713          	addi	x14,x0,-1
80001590:	00000513          	addi	x10,x0,0
80001594:	fce78ae3          	beq	x15,x14,80001568 <xTaskCheckForTimeOut+0x54>
80001598:	80020637          	lui	x12,0x80020
8000159c:	14862603          	lw	x12,328(x12) # 80020148 <__freertos_irq_stack_top+0xffffe148>
800015a0:	00042583          	lw	x11,0(x8)
800015a4:	00442703          	lw	x14,4(x8)
800015a8:	00c58863          	beq	x11,x12,800015b8 <xTaskCheckForTimeOut+0xa4>
800015ac:	00e6e663          	bltu	x13,x14,800015b8 <xTaskCheckForTimeOut+0xa4>
800015b0:	0004a023          	sw	x0,0(x9)
800015b4:	fb1ff06f          	jal	x0,80001564 <xTaskCheckForTimeOut+0x50>
800015b8:	40e68633          	sub	x12,x13,x14
800015bc:	fef67ae3          	bgeu	x12,x15,800015b0 <xTaskCheckForTimeOut+0x9c>
800015c0:	40d787b3          	sub	x15,x15,x13
800015c4:	00e787b3          	add	x15,x15,x14
800015c8:	00040513          	addi	x10,x8,0
800015cc:	00f4a023          	sw	x15,0(x9)
800015d0:	fe0ff0ef          	jal	x1,80000db0 <vTaskInternalSetTimeOutState>
800015d4:	00000513          	addi	x10,x0,0
800015d8:	f91ff06f          	jal	x0,80001568 <xTaskCheckForTimeOut+0x54>

800015dc <prvIsQueueEmpty>:
800015dc:	ff010113          	addi	x2,x2,-16
800015e0:	00812423          	sw	x8,8(x2)
800015e4:	00050413          	addi	x8,x10,0
800015e8:	00112623          	sw	x1,12(x2)
800015ec:	8e1ff0ef          	jal	x1,80000ecc <vTaskEnterCritical>
800015f0:	03842403          	lw	x8,56(x8)
800015f4:	909ff0ef          	jal	x1,80000efc <vTaskExitCritical>
800015f8:	00c12083          	lw	x1,12(x2)
800015fc:	00143513          	sltiu	x10,x8,1
80001600:	00812403          	lw	x8,8(x2)
80001604:	01010113          	addi	x2,x2,16
80001608:	00008067          	jalr	x0,0(x1)

8000160c <prvCopyDataToQueue>:
8000160c:	ff010113          	addi	x2,x2,-16
80001610:	00912223          	sw	x9,4(x2)
80001614:	00060493          	addi	x9,x12,0
80001618:	04052603          	lw	x12,64(x10)
8000161c:	01212023          	sw	x18,0(x2)
80001620:	03852903          	lw	x18,56(x10)
80001624:	00812423          	sw	x8,8(x2)
80001628:	00112623          	sw	x1,12(x2)
8000162c:	00050413          	addi	x8,x10,0
80001630:	04061263          	bne	x12,x0,80001674 <prvCopyDataToQueue+0x68>
80001634:	00052783          	lw	x15,0(x10)
80001638:	00000493          	addi	x9,x0,0
8000163c:	00079a63          	bne	x15,x0,80001650 <prvCopyDataToQueue+0x44>
80001640:	00852503          	lw	x10,8(x10)
80001644:	f98ff0ef          	jal	x1,80000ddc <xTaskPriorityDisinherit>
80001648:	00050493          	addi	x9,x10,0
8000164c:	00042423          	sw	x0,8(x8)
80001650:	00190913          	addi	x18,x18,1
80001654:	03242c23          	sw	x18,56(x8)
80001658:	00c12083          	lw	x1,12(x2)
8000165c:	00812403          	lw	x8,8(x2)
80001660:	00012903          	lw	x18,0(x2)
80001664:	00048513          	addi	x10,x9,0
80001668:	00412483          	lw	x9,4(x2)
8000166c:	01010113          	addi	x2,x2,16
80001670:	00008067          	jalr	x0,0(x1)
80001674:	02049863          	bne	x9,x0,800016a4 <prvCopyDataToQueue+0x98>
80001678:	00452503          	lw	x10,4(x10)
8000167c:	229000ef          	jal	x1,800020a4 <memcpy>
80001680:	00442783          	lw	x15,4(x8)
80001684:	04042703          	lw	x14,64(x8)
80001688:	00e787b3          	add	x15,x15,x14
8000168c:	00842703          	lw	x14,8(x8)
80001690:	00f42223          	sw	x15,4(x8)
80001694:	fae7eee3          	bltu	x15,x14,80001650 <prvCopyDataToQueue+0x44>
80001698:	00042783          	lw	x15,0(x8)
8000169c:	00f42223          	sw	x15,4(x8)
800016a0:	fb1ff06f          	jal	x0,80001650 <prvCopyDataToQueue+0x44>
800016a4:	00c52503          	lw	x10,12(x10)
800016a8:	1fd000ef          	jal	x1,800020a4 <memcpy>
800016ac:	04042703          	lw	x14,64(x8)
800016b0:	00c42783          	lw	x15,12(x8)
800016b4:	40e006b3          	sub	x13,x0,x14
800016b8:	40e787b3          	sub	x15,x15,x14
800016bc:	00042703          	lw	x14,0(x8)
800016c0:	00f42623          	sw	x15,12(x8)
800016c4:	00e7f863          	bgeu	x15,x14,800016d4 <prvCopyDataToQueue+0xc8>
800016c8:	00842783          	lw	x15,8(x8)
800016cc:	00d787b3          	add	x15,x15,x13
800016d0:	00f42623          	sw	x15,12(x8)
800016d4:	00200793          	addi	x15,x0,2
800016d8:	00f49a63          	bne	x9,x15,800016ec <prvCopyDataToQueue+0xe0>
800016dc:	00000493          	addi	x9,x0,0
800016e0:	f60908e3          	beq	x18,x0,80001650 <prvCopyDataToQueue+0x44>
800016e4:	fff90913          	addi	x18,x18,-1
800016e8:	f69ff06f          	jal	x0,80001650 <prvCopyDataToQueue+0x44>
800016ec:	00000493          	addi	x9,x0,0
800016f0:	f61ff06f          	jal	x0,80001650 <prvCopyDataToQueue+0x44>

800016f4 <prvCopyDataFromQueue>:
800016f4:	00050793          	addi	x15,x10,0
800016f8:	0407a603          	lw	x12,64(x15)
800016fc:	00058513          	addi	x10,x11,0
80001700:	02060463          	beq	x12,x0,80001728 <prvCopyDataFromQueue+0x34>
80001704:	00c7a703          	lw	x14,12(x15)
80001708:	0087a683          	lw	x13,8(x15)
8000170c:	00c70733          	add	x14,x14,x12
80001710:	00e7a623          	sw	x14,12(x15)
80001714:	00d76663          	bltu	x14,x13,80001720 <prvCopyDataFromQueue+0x2c>
80001718:	0007a703          	lw	x14,0(x15)
8000171c:	00e7a623          	sw	x14,12(x15)
80001720:	00c7a583          	lw	x11,12(x15)
80001724:	1810006f          	jal	x0,800020a4 <memcpy>
80001728:	00008067          	jalr	x0,0(x1)

8000172c <prvUnlockQueue>:
8000172c:	ff010113          	addi	x2,x2,-16
80001730:	00812423          	sw	x8,8(x2)
80001734:	00050413          	addi	x8,x10,0
80001738:	00912223          	sw	x9,4(x2)
8000173c:	01212023          	sw	x18,0(x2)
80001740:	00112623          	sw	x1,12(x2)
80001744:	f88ff0ef          	jal	x1,80000ecc <vTaskEnterCritical>
80001748:	04544483          	lbu	x9,69(x8)
8000174c:	02440913          	addi	x18,x8,36
80001750:	01849493          	slli	x9,x9,0x18
80001754:	4184d493          	srai	x9,x9,0x18
80001758:	04904463          	blt	x0,x9,800017a0 <prvUnlockQueue+0x74>
8000175c:	fff00793          	addi	x15,x0,-1
80001760:	04f402a3          	sb	x15,69(x8)
80001764:	f98ff0ef          	jal	x1,80000efc <vTaskExitCritical>
80001768:	f64ff0ef          	jal	x1,80000ecc <vTaskEnterCritical>
8000176c:	04444483          	lbu	x9,68(x8)
80001770:	01040913          	addi	x18,x8,16
80001774:	01849493          	slli	x9,x9,0x18
80001778:	4184d493          	srai	x9,x9,0x18
8000177c:	04904663          	blt	x0,x9,800017c8 <prvUnlockQueue+0x9c>
80001780:	fff00793          	addi	x15,x0,-1
80001784:	04f40223          	sb	x15,68(x8)
80001788:	00812403          	lw	x8,8(x2)
8000178c:	00c12083          	lw	x1,12(x2)
80001790:	00412483          	lw	x9,4(x2)
80001794:	00012903          	lw	x18,0(x2)
80001798:	01010113          	addi	x2,x2,16
8000179c:	f60ff06f          	jal	x0,80000efc <vTaskExitCritical>
800017a0:	02442783          	lw	x15,36(x8)
800017a4:	fa078ce3          	beq	x15,x0,8000175c <prvUnlockQueue+0x30>
800017a8:	00090513          	addi	x10,x18,0
800017ac:	d38ff0ef          	jal	x1,80000ce4 <xTaskRemoveFromEventList>
800017b0:	00050463          	beq	x10,x0,800017b8 <prvUnlockQueue+0x8c>
800017b4:	e18ff0ef          	jal	x1,80000dcc <vTaskMissedYield>
800017b8:	fff48493          	addi	x9,x9,-1
800017bc:	01849493          	slli	x9,x9,0x18
800017c0:	4184d493          	srai	x9,x9,0x18
800017c4:	f95ff06f          	jal	x0,80001758 <prvUnlockQueue+0x2c>
800017c8:	01042783          	lw	x15,16(x8)
800017cc:	fa078ae3          	beq	x15,x0,80001780 <prvUnlockQueue+0x54>
800017d0:	00090513          	addi	x10,x18,0
800017d4:	d10ff0ef          	jal	x1,80000ce4 <xTaskRemoveFromEventList>
800017d8:	00050463          	beq	x10,x0,800017e0 <prvUnlockQueue+0xb4>
800017dc:	df0ff0ef          	jal	x1,80000dcc <vTaskMissedYield>
800017e0:	fff48493          	addi	x9,x9,-1
800017e4:	01849493          	slli	x9,x9,0x18
800017e8:	4184d493          	srai	x9,x9,0x18
800017ec:	f91ff06f          	jal	x0,8000177c <prvUnlockQueue+0x50>

800017f0 <xQueueGenericReset>:
800017f0:	fe010113          	addi	x2,x2,-32
800017f4:	00812c23          	sw	x8,24(x2)
800017f8:	01212823          	sw	x18,16(x2)
800017fc:	00112e23          	sw	x1,28(x2)
80001800:	00912a23          	sw	x9,20(x2)
80001804:	01312623          	sw	x19,12(x2)
80001808:	00050413          	addi	x8,x10,0
8000180c:	00058913          	addi	x18,x11,0
80001810:	00051463          	bne	x10,x0,80001818 <xQueueGenericReset+0x28>
80001814:	eb9fe0ef          	jal	x1,800006cc <vAssertCalled>
80001818:	eb4ff0ef          	jal	x1,80000ecc <vTaskEnterCritical>
8000181c:	04042983          	lw	x19,64(x8)
80001820:	03c42583          	lw	x11,60(x8)
80001824:	00042483          	lw	x9,0(x8)
80001828:	00098513          	addi	x10,x19,0
8000182c:	7a0000ef          	jal	x1,80001fcc <__mulsi3>
80001830:	00a487b3          	add	x15,x9,x10
80001834:	02042c23          	sw	x0,56(x8)
80001838:	00f42423          	sw	x15,8(x8)
8000183c:	41350533          	sub	x10,x10,x19
80001840:	fff00793          	addi	x15,x0,-1
80001844:	00a48533          	add	x10,x9,x10
80001848:	04f40223          	sb	x15,68(x8)
8000184c:	00942223          	sw	x9,4(x8)
80001850:	00a42623          	sw	x10,12(x8)
80001854:	04f402a3          	sb	x15,69(x8)
80001858:	04091063          	bne	x18,x0,80001898 <xQueueGenericReset+0xa8>
8000185c:	01042783          	lw	x15,16(x8)
80001860:	00078a63          	beq	x15,x0,80001874 <xQueueGenericReset+0x84>
80001864:	01040513          	addi	x10,x8,16
80001868:	c7cff0ef          	jal	x1,80000ce4 <xTaskRemoveFromEventList>
8000186c:	00050463          	beq	x10,x0,80001874 <xQueueGenericReset+0x84>
80001870:	00000073          	ecall
80001874:	e88ff0ef          	jal	x1,80000efc <vTaskExitCritical>
80001878:	01c12083          	lw	x1,28(x2)
8000187c:	01812403          	lw	x8,24(x2)
80001880:	01412483          	lw	x9,20(x2)
80001884:	01012903          	lw	x18,16(x2)
80001888:	00c12983          	lw	x19,12(x2)
8000188c:	00100513          	addi	x10,x0,1
80001890:	02010113          	addi	x2,x2,32
80001894:	00008067          	jalr	x0,0(x1)
80001898:	01040513          	addi	x10,x8,16
8000189c:	e71fe0ef          	jal	x1,8000070c <vListInitialise>
800018a0:	02440513          	addi	x10,x8,36
800018a4:	e69fe0ef          	jal	x1,8000070c <vListInitialise>
800018a8:	fcdff06f          	jal	x0,80001874 <xQueueGenericReset+0x84>

800018ac <xQueueGenericCreate>:
800018ac:	ff010113          	addi	x2,x2,-16
800018b0:	00912223          	sw	x9,4(x2)
800018b4:	01212023          	sw	x18,0(x2)
800018b8:	00112623          	sw	x1,12(x2)
800018bc:	00812423          	sw	x8,8(x2)
800018c0:	00050913          	addi	x18,x10,0
800018c4:	00058493          	addi	x9,x11,0
800018c8:	00051463          	bne	x10,x0,800018d0 <xQueueGenericCreate+0x24>
800018cc:	e01fe0ef          	jal	x1,800006cc <vAssertCalled>
800018d0:	00048593          	addi	x11,x9,0
800018d4:	00090513          	addi	x10,x18,0
800018d8:	6f4000ef          	jal	x1,80001fcc <__mulsi3>
800018dc:	00050413          	addi	x8,x10,0
800018e0:	02048063          	beq	x9,x0,80001900 <xQueueGenericCreate+0x54>
800018e4:	00048593          	addi	x11,x9,0
800018e8:	710000ef          	jal	x1,80001ff8 <__udivsi3>
800018ec:	01250463          	beq	x10,x18,800018f4 <xQueueGenericCreate+0x48>
800018f0:	dddfe0ef          	jal	x1,800006cc <vAssertCalled>
800018f4:	fb700793          	addi	x15,x0,-73
800018f8:	0087f463          	bgeu	x15,x8,80001900 <xQueueGenericCreate+0x54>
800018fc:	dd1fe0ef          	jal	x1,800006cc <vAssertCalled>
80001900:	04840513          	addi	x10,x8,72
80001904:	454000ef          	jal	x1,80001d58 <pvPortMalloc>
80001908:	00050413          	addi	x8,x10,0
8000190c:	02050463          	beq	x10,x0,80001934 <xQueueGenericCreate+0x88>
80001910:	00050793          	addi	x15,x10,0
80001914:	00048463          	beq	x9,x0,8000191c <xQueueGenericCreate+0x70>
80001918:	04850793          	addi	x15,x10,72
8000191c:	00f42023          	sw	x15,0(x8)
80001920:	03242e23          	sw	x18,60(x8)
80001924:	04942023          	sw	x9,64(x8)
80001928:	00100593          	addi	x11,x0,1
8000192c:	00040513          	addi	x10,x8,0
80001930:	ec1ff0ef          	jal	x1,800017f0 <xQueueGenericReset>
80001934:	00c12083          	lw	x1,12(x2)
80001938:	00040513          	addi	x10,x8,0
8000193c:	00812403          	lw	x8,8(x2)
80001940:	00412483          	lw	x9,4(x2)
80001944:	00012903          	lw	x18,0(x2)
80001948:	01010113          	addi	x2,x2,16
8000194c:	00008067          	jalr	x0,0(x1)

80001950 <xQueueGenericSend>:
80001950:	fc010113          	addi	x2,x2,-64
80001954:	02812c23          	sw	x8,56(x2)
80001958:	02912a23          	sw	x9,52(x2)
8000195c:	03212823          	sw	x18,48(x2)
80001960:	02112e23          	sw	x1,60(x2)
80001964:	03312623          	sw	x19,44(x2)
80001968:	03412423          	sw	x20,40(x2)
8000196c:	03512223          	sw	x21,36(x2)
80001970:	03612023          	sw	x22,32(x2)
80001974:	00c12623          	sw	x12,12(x2)
80001978:	00050413          	addi	x8,x10,0
8000197c:	00058913          	addi	x18,x11,0
80001980:	00068493          	addi	x9,x13,0
80001984:	00051463          	bne	x10,x0,8000198c <xQueueGenericSend+0x3c>
80001988:	d45fe0ef          	jal	x1,800006cc <vAssertCalled>
8000198c:	00091863          	bne	x18,x0,8000199c <xQueueGenericSend+0x4c>
80001990:	04042783          	lw	x15,64(x8)
80001994:	00078463          	beq	x15,x0,8000199c <xQueueGenericSend+0x4c>
80001998:	d35fe0ef          	jal	x1,800006cc <vAssertCalled>
8000199c:	00200793          	addi	x15,x0,2
800019a0:	00f49a63          	bne	x9,x15,800019b4 <xQueueGenericSend+0x64>
800019a4:	03c42703          	lw	x14,60(x8)
800019a8:	00100793          	addi	x15,x0,1
800019ac:	00f70463          	beq	x14,x15,800019b4 <xQueueGenericSend+0x64>
800019b0:	d1dfe0ef          	jal	x1,800006cc <vAssertCalled>
800019b4:	00000a13          	addi	x20,x0,0
800019b8:	00200a93          	addi	x21,x0,2
800019bc:	fff00993          	addi	x19,x0,-1
800019c0:	01040b13          	addi	x22,x8,16
800019c4:	d08ff0ef          	jal	x1,80000ecc <vTaskEnterCritical>
800019c8:	03842703          	lw	x14,56(x8)
800019cc:	03c42783          	lw	x15,60(x8)
800019d0:	00f76463          	bltu	x14,x15,800019d8 <xQueueGenericSend+0x88>
800019d4:	05549e63          	bne	x9,x21,80001a30 <xQueueGenericSend+0xe0>
800019d8:	00048613          	addi	x12,x9,0
800019dc:	00090593          	addi	x11,x18,0
800019e0:	00040513          	addi	x10,x8,0
800019e4:	c29ff0ef          	jal	x1,8000160c <prvCopyDataToQueue>
800019e8:	02442783          	lw	x15,36(x8)
800019ec:	00078663          	beq	x15,x0,800019f8 <xQueueGenericSend+0xa8>
800019f0:	02440513          	addi	x10,x8,36
800019f4:	af0ff0ef          	jal	x1,80000ce4 <xTaskRemoveFromEventList>
800019f8:	00050463          	beq	x10,x0,80001a00 <xQueueGenericSend+0xb0>
800019fc:	00000073          	ecall
80001a00:	cfcff0ef          	jal	x1,80000efc <vTaskExitCritical>
80001a04:	00100513          	addi	x10,x0,1
80001a08:	03c12083          	lw	x1,60(x2)
80001a0c:	03812403          	lw	x8,56(x2)
80001a10:	03412483          	lw	x9,52(x2)
80001a14:	03012903          	lw	x18,48(x2)
80001a18:	02c12983          	lw	x19,44(x2)
80001a1c:	02812a03          	lw	x20,40(x2)
80001a20:	02412a83          	lw	x21,36(x2)
80001a24:	02012b03          	lw	x22,32(x2)
80001a28:	04010113          	addi	x2,x2,64
80001a2c:	00008067          	jalr	x0,0(x1)
80001a30:	00c12783          	lw	x15,12(x2)
80001a34:	00079863          	bne	x15,x0,80001a44 <xQueueGenericSend+0xf4>
80001a38:	cc4ff0ef          	jal	x1,80000efc <vTaskExitCritical>
80001a3c:	00000513          	addi	x10,x0,0
80001a40:	fc9ff06f          	jal	x0,80001a08 <xQueueGenericSend+0xb8>
80001a44:	000a1663          	bne	x20,x0,80001a50 <xQueueGenericSend+0x100>
80001a48:	01810513          	addi	x10,x2,24
80001a4c:	b64ff0ef          	jal	x1,80000db0 <vTaskInternalSetTimeOutState>
80001a50:	cacff0ef          	jal	x1,80000efc <vTaskExitCritical>
80001a54:	ef9fe0ef          	jal	x1,8000094c <vTaskSuspendAll>
80001a58:	c74ff0ef          	jal	x1,80000ecc <vTaskEnterCritical>
80001a5c:	04444783          	lbu	x15,68(x8)
80001a60:	01879793          	slli	x15,x15,0x18
80001a64:	4187d793          	srai	x15,x15,0x18
80001a68:	01379463          	bne	x15,x19,80001a70 <xQueueGenericSend+0x120>
80001a6c:	04040223          	sb	x0,68(x8)
80001a70:	04544783          	lbu	x15,69(x8)
80001a74:	01879793          	slli	x15,x15,0x18
80001a78:	4187d793          	srai	x15,x15,0x18
80001a7c:	01379463          	bne	x15,x19,80001a84 <xQueueGenericSend+0x134>
80001a80:	040402a3          	sb	x0,69(x8)
80001a84:	c78ff0ef          	jal	x1,80000efc <vTaskExitCritical>
80001a88:	00c10593          	addi	x11,x2,12
80001a8c:	01810513          	addi	x10,x2,24
80001a90:	a85ff0ef          	jal	x1,80001514 <xTaskCheckForTimeOut>
80001a94:	04051c63          	bne	x10,x0,80001aec <xQueueGenericSend+0x19c>
80001a98:	c34ff0ef          	jal	x1,80000ecc <vTaskEnterCritical>
80001a9c:	03842703          	lw	x14,56(x8)
80001aa0:	03c42783          	lw	x15,60(x8)
80001aa4:	02f71663          	bne	x14,x15,80001ad0 <xQueueGenericSend+0x180>
80001aa8:	c54ff0ef          	jal	x1,80000efc <vTaskExitCritical>
80001aac:	00c12583          	lw	x11,12(x2)
80001ab0:	000b0513          	addi	x10,x22,0
80001ab4:	9e8ff0ef          	jal	x1,80000c9c <vTaskPlaceOnEventList>
80001ab8:	00040513          	addi	x10,x8,0
80001abc:	c71ff0ef          	jal	x1,8000172c <prvUnlockQueue>
80001ac0:	831ff0ef          	jal	x1,800012f0 <xTaskResumeAll>
80001ac4:	02050063          	beq	x10,x0,80001ae4 <xQueueGenericSend+0x194>
80001ac8:	00100a13          	addi	x20,x0,1
80001acc:	ef9ff06f          	jal	x0,800019c4 <xQueueGenericSend+0x74>
80001ad0:	c2cff0ef          	jal	x1,80000efc <vTaskExitCritical>
80001ad4:	00040513          	addi	x10,x8,0
80001ad8:	c55ff0ef          	jal	x1,8000172c <prvUnlockQueue>
80001adc:	815ff0ef          	jal	x1,800012f0 <xTaskResumeAll>
80001ae0:	fe9ff06f          	jal	x0,80001ac8 <xQueueGenericSend+0x178>
80001ae4:	00000073          	ecall
80001ae8:	fe1ff06f          	jal	x0,80001ac8 <xQueueGenericSend+0x178>
80001aec:	00040513          	addi	x10,x8,0
80001af0:	c3dff0ef          	jal	x1,8000172c <prvUnlockQueue>
80001af4:	ffcff0ef          	jal	x1,800012f0 <xTaskResumeAll>
80001af8:	f45ff06f          	jal	x0,80001a3c <xQueueGenericSend+0xec>

80001afc <xQueueReceive>:
80001afc:	fc010113          	addi	x2,x2,-64
80001b00:	02812c23          	sw	x8,56(x2)
80001b04:	02912a23          	sw	x9,52(x2)
80001b08:	02112e23          	sw	x1,60(x2)
80001b0c:	03212823          	sw	x18,48(x2)
80001b10:	03312623          	sw	x19,44(x2)
80001b14:	03412423          	sw	x20,40(x2)
80001b18:	03512223          	sw	x21,36(x2)
80001b1c:	00c12623          	sw	x12,12(x2)
80001b20:	00050413          	addi	x8,x10,0
80001b24:	00058493          	addi	x9,x11,0
80001b28:	00051463          	bne	x10,x0,80001b30 <xQueueReceive+0x34>
80001b2c:	ba1fe0ef          	jal	x1,800006cc <vAssertCalled>
80001b30:	00049863          	bne	x9,x0,80001b40 <xQueueReceive+0x44>
80001b34:	04042783          	lw	x15,64(x8)
80001b38:	00078463          	beq	x15,x0,80001b40 <xQueueReceive+0x44>
80001b3c:	b91fe0ef          	jal	x1,800006cc <vAssertCalled>
80001b40:	00000a13          	addi	x20,x0,0
80001b44:	fff00993          	addi	x19,x0,-1
80001b48:	02440a93          	addi	x21,x8,36
80001b4c:	b80ff0ef          	jal	x1,80000ecc <vTaskEnterCritical>
80001b50:	03842903          	lw	x18,56(x8)
80001b54:	04090e63          	beq	x18,x0,80001bb0 <xQueueReceive+0xb4>
80001b58:	00048593          	addi	x11,x9,0
80001b5c:	00040513          	addi	x10,x8,0
80001b60:	fff90913          	addi	x18,x18,-1
80001b64:	b91ff0ef          	jal	x1,800016f4 <prvCopyDataFromQueue>
80001b68:	03242c23          	sw	x18,56(x8)
80001b6c:	01042783          	lw	x15,16(x8)
80001b70:	00078a63          	beq	x15,x0,80001b84 <xQueueReceive+0x88>
80001b74:	01040513          	addi	x10,x8,16
80001b78:	96cff0ef          	jal	x1,80000ce4 <xTaskRemoveFromEventList>
80001b7c:	00050463          	beq	x10,x0,80001b84 <xQueueReceive+0x88>
80001b80:	00000073          	ecall
80001b84:	b78ff0ef          	jal	x1,80000efc <vTaskExitCritical>
80001b88:	00100513          	addi	x10,x0,1
80001b8c:	03c12083          	lw	x1,60(x2)
80001b90:	03812403          	lw	x8,56(x2)
80001b94:	03412483          	lw	x9,52(x2)
80001b98:	03012903          	lw	x18,48(x2)
80001b9c:	02c12983          	lw	x19,44(x2)
80001ba0:	02812a03          	lw	x20,40(x2)
80001ba4:	02412a83          	lw	x21,36(x2)
80001ba8:	04010113          	addi	x2,x2,64
80001bac:	00008067          	jalr	x0,0(x1)
80001bb0:	00c12783          	lw	x15,12(x2)
80001bb4:	00079863          	bne	x15,x0,80001bc4 <xQueueReceive+0xc8>
80001bb8:	b44ff0ef          	jal	x1,80000efc <vTaskExitCritical>
80001bbc:	00000513          	addi	x10,x0,0
80001bc0:	fcdff06f          	jal	x0,80001b8c <xQueueReceive+0x90>
80001bc4:	000a1663          	bne	x20,x0,80001bd0 <xQueueReceive+0xd4>
80001bc8:	01810513          	addi	x10,x2,24
80001bcc:	9e4ff0ef          	jal	x1,80000db0 <vTaskInternalSetTimeOutState>
80001bd0:	b2cff0ef          	jal	x1,80000efc <vTaskExitCritical>
80001bd4:	d79fe0ef          	jal	x1,8000094c <vTaskSuspendAll>
80001bd8:	af4ff0ef          	jal	x1,80000ecc <vTaskEnterCritical>
80001bdc:	04444783          	lbu	x15,68(x8)
80001be0:	01879793          	slli	x15,x15,0x18
80001be4:	4187d793          	srai	x15,x15,0x18
80001be8:	01379463          	bne	x15,x19,80001bf0 <xQueueReceive+0xf4>
80001bec:	04040223          	sb	x0,68(x8)
80001bf0:	04544783          	lbu	x15,69(x8)
80001bf4:	01879793          	slli	x15,x15,0x18
80001bf8:	4187d793          	srai	x15,x15,0x18
80001bfc:	01379463          	bne	x15,x19,80001c04 <xQueueReceive+0x108>
80001c00:	040402a3          	sb	x0,69(x8)
80001c04:	af8ff0ef          	jal	x1,80000efc <vTaskExitCritical>
80001c08:	00c10593          	addi	x11,x2,12
80001c0c:	01810513          	addi	x10,x2,24
80001c10:	905ff0ef          	jal	x1,80001514 <xTaskCheckForTimeOut>
80001c14:	04051463          	bne	x10,x0,80001c5c <xQueueReceive+0x160>
80001c18:	00040513          	addi	x10,x8,0
80001c1c:	9c1ff0ef          	jal	x1,800015dc <prvIsQueueEmpty>
80001c20:	02050663          	beq	x10,x0,80001c4c <xQueueReceive+0x150>
80001c24:	00c12583          	lw	x11,12(x2)
80001c28:	000a8513          	addi	x10,x21,0
80001c2c:	870ff0ef          	jal	x1,80000c9c <vTaskPlaceOnEventList>
80001c30:	00040513          	addi	x10,x8,0
80001c34:	af9ff0ef          	jal	x1,8000172c <prvUnlockQueue>
80001c38:	eb8ff0ef          	jal	x1,800012f0 <xTaskResumeAll>
80001c3c:	00051463          	bne	x10,x0,80001c44 <xQueueReceive+0x148>
80001c40:	00000073          	ecall
80001c44:	00100a13          	addi	x20,x0,1
80001c48:	f05ff06f          	jal	x0,80001b4c <xQueueReceive+0x50>
80001c4c:	00040513          	addi	x10,x8,0
80001c50:	addff0ef          	jal	x1,8000172c <prvUnlockQueue>
80001c54:	e9cff0ef          	jal	x1,800012f0 <xTaskResumeAll>
80001c58:	fedff06f          	jal	x0,80001c44 <xQueueReceive+0x148>
80001c5c:	00040513          	addi	x10,x8,0
80001c60:	acdff0ef          	jal	x1,8000172c <prvUnlockQueue>
80001c64:	e8cff0ef          	jal	x1,800012f0 <xTaskResumeAll>
80001c68:	00040513          	addi	x10,x8,0
80001c6c:	971ff0ef          	jal	x1,800015dc <prvIsQueueEmpty>
80001c70:	fc050ae3          	beq	x10,x0,80001c44 <xQueueReceive+0x148>
80001c74:	f49ff06f          	jal	x0,80001bbc <xQueueReceive+0xc0>

80001c78 <vPortSetupTimerInterrupt>:
80001c78:	ff010113          	addi	x2,x2,-16
80001c7c:	f14027f3          	csrrs	x15,mhartid,x0
80001c80:	00f12623          	sw	x15,12(x2)
80001c84:	00c12703          	lw	x14,12(x2)
80001c88:	140017b7          	lui	x15,0x14001
80001c8c:	80078793          	addi	x15,x15,-2048 # 14000800 <__stack_size+0x13ffe800>
80001c90:	00f70733          	add	x14,x14,x15
80001c94:	00371713          	slli	x14,x14,0x3
80001c98:	800207b7          	lui	x15,0x80020
80001c9c:	14e7ae23          	sw	x14,348(x15) # 8002015c <__freertos_irq_stack_top+0xffffe15c>
80001ca0:	a000c6b7          	lui	x13,0xa000c
80001ca4:	ffc6a583          	lw	x11,-4(x13) # a000bffc <__freertos_irq_stack_top+0x1ffe9ffc>
80001ca8:	ff86a783          	lw	x15,-8(x13)
80001cac:	ffc6a603          	lw	x12,-4(x13)
80001cb0:	feb61ae3          	bne	x12,x11,80001ca4 <vPortSetupTimerInterrupt+0x2c>
80001cb4:	0000c6b7          	lui	x13,0xc
80001cb8:	35068693          	addi	x13,x13,848 # c350 <__stack_size+0xa350>
80001cbc:	00d786b3          	add	x13,x15,x13
80001cc0:	00f6b833          	sltu	x16,x13,x15
80001cc4:	00d72023          	sw	x13,0(x14)
80001cc8:	00c805b3          	add	x11,x16,x12
80001ccc:	00b72223          	sw	x11,4(x14)
80001cd0:	00018737          	lui	x14,0x18
80001cd4:	6a070713          	addi	x14,x14,1696 # 186a0 <__stack_size+0x166a0>
80001cd8:	00e78733          	add	x14,x15,x14
80001cdc:	800206b7          	lui	x13,0x80020
80001ce0:	00f737b3          	sltu	x15,x14,x15
80001ce4:	16068693          	addi	x13,x13,352 # 80020160 <__freertos_irq_stack_top+0xffffe160>
80001ce8:	00c787b3          	add	x15,x15,x12
80001cec:	00e6a023          	sw	x14,0(x13)
80001cf0:	00f6a223          	sw	x15,4(x13)
80001cf4:	01010113          	addi	x2,x2,16
80001cf8:	00008067          	jalr	x0,0(x1)

80001cfc <xPortStartScheduler>:
80001cfc:	fe010113          	addi	x2,x2,-32
80001d00:	00112e23          	sw	x1,28(x2)
80001d04:	00012623          	sw	x0,12(x2)
80001d08:	305027f3          	csrrs	x15,mtvec,x0
80001d0c:	00f12623          	sw	x15,12(x2)
80001d10:	00c12783          	lw	x15,12(x2)
80001d14:	0037f793          	andi	x15,x15,3
80001d18:	00078463          	beq	x15,x0,80001d20 <xPortStartScheduler+0x24>
80001d1c:	9b1fe0ef          	jal	x1,800006cc <vAssertCalled>
80001d20:	800227b7          	lui	x15,0x80022
80001d24:	00078793          	addi	x15,x15,0 # 80022000 <__freertos_irq_stack_top+0x0>
80001d28:	00f7f793          	andi	x15,x15,15
80001d2c:	00078463          	beq	x15,x0,80001d34 <xPortStartScheduler+0x38>
80001d30:	99dfe0ef          	jal	x1,800006cc <vAssertCalled>
80001d34:	f45ff0ef          	jal	x1,80001c78 <vPortSetupTimerInterrupt>
80001d38:	000017b7          	lui	x15,0x1
80001d3c:	88078793          	addi	x15,x15,-1920 # 880 <__stack_size-0x1780>
80001d40:	3047a073          	csrrs	x0,mie,x15
80001d44:	ebcfe0ef          	jal	x1,80000400 <xPortStartFirstTask>
80001d48:	01c12083          	lw	x1,28(x2)
80001d4c:	00000513          	addi	x10,x0,0
80001d50:	02010113          	addi	x2,x2,32
80001d54:	00008067          	jalr	x0,0(x1)

80001d58 <pvPortMalloc>:
80001d58:	ff010113          	addi	x2,x2,-16
80001d5c:	00812423          	sw	x8,8(x2)
80001d60:	00112623          	sw	x1,12(x2)
80001d64:	00912223          	sw	x9,4(x2)
80001d68:	00f57793          	andi	x15,x10,15
80001d6c:	00050413          	addi	x8,x10,0
80001d70:	00078a63          	beq	x15,x0,80001d84 <pvPortMalloc+0x2c>
80001d74:	ff057793          	andi	x15,x10,-16
80001d78:	01078793          	addi	x15,x15,16
80001d7c:	04f57063          	bgeu	x10,x15,80001dbc <pvPortMalloc+0x64>
80001d80:	00078413          	addi	x8,x15,0
80001d84:	bc9fe0ef          	jal	x1,8000094c <vTaskSuspendAll>
80001d88:	800207b7          	lui	x15,0x80020
80001d8c:	1687a703          	lw	x14,360(x15) # 80020168 <__freertos_irq_stack_top+0xffffe168>
80001d90:	16878793          	addi	x15,x15,360
80001d94:	00071a63          	bne	x14,x0,80001da8 <pvPortMalloc+0x50>
80001d98:	80020737          	lui	x14,0x80020
80001d9c:	27470713          	addi	x14,x14,628 # 80020274 <__freertos_irq_stack_top+0xffffe274>
80001da0:	ff077713          	andi	x14,x14,-16
80001da4:	00e7a023          	sw	x14,0(x15)
80001da8:	00041e63          	bne	x8,x0,80001dc4 <pvPortMalloc+0x6c>
80001dac:	d44ff0ef          	jal	x1,800012f0 <xTaskResumeAll>
80001db0:	909fe0ef          	jal	x1,800006b8 <vApplicationMallocFailedHook>
80001db4:	00000493          	addi	x9,x0,0
80001db8:	03c0006f          	jal	x0,80001df4 <pvPortMalloc+0x9c>
80001dbc:	00000413          	addi	x8,x0,0
80001dc0:	fc5ff06f          	jal	x0,80001d84 <pvPortMalloc+0x2c>
80001dc4:	80020737          	lui	x14,0x80020
80001dc8:	16c70713          	addi	x14,x14,364 # 8002016c <__freertos_irq_stack_top+0xffffe16c>
80001dcc:	00072683          	lw	x13,0(x14)
80001dd0:	7ef00613          	addi	x12,x0,2031
80001dd4:	00868433          	add	x8,x13,x8
80001dd8:	fc866ae3          	bltu	x12,x8,80001dac <pvPortMalloc+0x54>
80001ddc:	fc86f8e3          	bgeu	x13,x8,80001dac <pvPortMalloc+0x54>
80001de0:	0007a483          	lw	x9,0(x15)
80001de4:	00872023          	sw	x8,0(x14)
80001de8:	00d484b3          	add	x9,x9,x13
80001dec:	d04ff0ef          	jal	x1,800012f0 <xTaskResumeAll>
80001df0:	fc0480e3          	beq	x9,x0,80001db0 <pvPortMalloc+0x58>
80001df4:	00c12083          	lw	x1,12(x2)
80001df8:	00812403          	lw	x8,8(x2)
80001dfc:	00048513          	addi	x10,x9,0
80001e00:	00412483          	lw	x9,4(x2)
80001e04:	01010113          	addi	x2,x2,16
80001e08:	00008067          	jalr	x0,0(x1)

80001e0c <vPortFree>:
80001e0c:	00050463          	beq	x10,x0,80001e14 <vPortFree+0x8>
80001e10:	8bdfe06f          	jal	x0,800006cc <vAssertCalled>
80001e14:	00008067          	jalr	x0,0(x1)

80001e18 <prvQueueSendTask>:
80001e18:	fe010113          	addi	x2,x2,-32
80001e1c:	06400793          	addi	x15,x0,100
80001e20:	00812c23          	sw	x8,24(x2)
80001e24:	00912a23          	sw	x9,20(x2)
80001e28:	00112e23          	sw	x1,28(x2)
80001e2c:	00f12623          	sw	x15,12(x2)
80001e30:	b35fe0ef          	jal	x1,80000964 <xTaskGetTickCount>
80001e34:	00a12423          	sw	x10,8(x2)
80001e38:	80020437          	lui	x8,0x80020
80001e3c:	00100493          	addi	x9,x0,1
80001e40:	00200593          	addi	x11,x0,2
80001e44:	00810513          	addi	x10,x2,8
80001e48:	e30ff0ef          	jal	x1,80001478 <xTaskDelayUntil>
80001e4c:	17042503          	lw	x10,368(x8) # 80020170 <__freertos_irq_stack_top+0xffffe170>
80001e50:	00000693          	addi	x13,x0,0
80001e54:	00000613          	addi	x12,x0,0
80001e58:	00c10593          	addi	x11,x2,12
80001e5c:	af5ff0ef          	jal	x1,80001950 <xQueueGenericSend>
80001e60:	fe9500e3          	beq	x10,x9,80001e40 <prvQueueSendTask+0x28>
80001e64:	869fe0ef          	jal	x1,800006cc <vAssertCalled>
80001e68:	fd9ff06f          	jal	x0,80001e40 <prvQueueSendTask+0x28>

80001e6c <prvQueueReceiveTask>:
80001e6c:	fe010113          	addi	x2,x2,-32
80001e70:	00812c23          	sw	x8,24(x2)
80001e74:	00912a23          	sw	x9,20(x2)
80001e78:	00112e23          	sw	x1,28(x2)
80001e7c:	80020437          	lui	x8,0x80020
80001e80:	06400493          	addi	x9,x0,100
80001e84:	17042503          	lw	x10,368(x8) # 80020170 <__freertos_irq_stack_top+0xffffe170>
80001e88:	fff00613          	addi	x12,x0,-1
80001e8c:	00c10593          	addi	x11,x2,12
80001e90:	c6dff0ef          	jal	x1,80001afc <xQueueReceive>
80001e94:	00c12783          	lw	x15,12(x2)
80001e98:	fe9796e3          	bne	x15,x9,80001e84 <prvQueueReceiveTask+0x18>
80001e9c:	805fe0ef          	jal	x1,800006a0 <vToggleLED>
80001ea0:	00012623          	sw	x0,12(x2)
80001ea4:	fe1ff06f          	jal	x0,80001e84 <prvQueueReceiveTask+0x18>

80001ea8 <main_blinky>:
80001ea8:	ff010113          	addi	x2,x2,-16
80001eac:	00000613          	addi	x12,x0,0
80001eb0:	00400593          	addi	x11,x0,4
80001eb4:	00100513          	addi	x10,x0,1
80001eb8:	00112623          	sw	x1,12(x2)
80001ebc:	9f1ff0ef          	jal	x1,800018ac <xQueueGenericCreate>
80001ec0:	800207b7          	lui	x15,0x80020
80001ec4:	16a7a823          	sw	x10,368(x15) # 80020170 <__freertos_irq_stack_top+0xffffe170>
80001ec8:	04050863          	beq	x10,x0,80001f18 <main_blinky+0x70>
80001ecc:	800205b7          	lui	x11,0x80020
80001ed0:	80002537          	lui	x10,0x80002
80001ed4:	00000793          	addi	x15,x0,0
80001ed8:	00200713          	addi	x14,x0,2
80001edc:	00000693          	addi	x13,x0,0
80001ee0:	07800613          	addi	x12,x0,120
80001ee4:	00858593          	addi	x11,x11,8 # 80020008 <__freertos_irq_stack_top+0xffffe008>
80001ee8:	e6c50513          	addi	x10,x10,-404 # 80001e6c <__freertos_irq_stack_top+0xfffdfe6c>
80001eec:	854ff0ef          	jal	x1,80000f40 <xTaskCreate>
80001ef0:	800205b7          	lui	x11,0x80020
80001ef4:	80002537          	lui	x10,0x80002
80001ef8:	00000793          	addi	x15,x0,0
80001efc:	00100713          	addi	x14,x0,1
80001f00:	00000693          	addi	x13,x0,0
80001f04:	07800613          	addi	x12,x0,120
80001f08:	00c58593          	addi	x11,x11,12 # 8002000c <__freertos_irq_stack_top+0xffffe00c>
80001f0c:	e1850513          	addi	x10,x10,-488 # 80001e18 <__freertos_irq_stack_top+0xfffdfe18>
80001f10:	830ff0ef          	jal	x1,80000f40 <xTaskCreate>
80001f14:	ae0ff0ef          	jal	x1,800011f4 <vTaskStartScheduler>
80001f18:	0000006f          	jal	x0,80001f18 <main_blinky+0x70>

80001f1c <_init>:
80001f1c:	800007b7          	lui	x15,0x80000
80001f20:	58878793          	addi	x15,x15,1416 # 80000588 <__freertos_irq_stack_top+0xfffde588>
80001f24:	30579073          	csrrw	x0,mtvec,x15
80001f28:	000027b7          	lui	x15,0x2
80001f2c:	88878793          	addi	x15,x15,-1912 # 1888 <__stack_size-0x778>
80001f30:	30079073          	csrrw	x0,mstatus,x15
80001f34:	00008067          	jalr	x0,0(x1)

80001f38 <__clzsi2>:
80001f38:	000107b7          	lui	x15,0x10
80001f3c:	02f57463          	bgeu	x10,x15,80001f64 <__clzsi2+0x2c>
80001f40:	0ff00793          	addi	x15,x0,255
80001f44:	02000713          	addi	x14,x0,32
80001f48:	06a7e263          	bltu	x15,x10,80001fac <__clzsi2+0x74>
80001f4c:	0001e797          	auipc	x15,0x1e
80001f50:	0c478793          	addi	x15,x15,196 # 80020010 <__clz_tab>
80001f54:	00a78533          	add	x10,x15,x10
80001f58:	00054503          	lbu	x10,0(x10)
80001f5c:	40a70533          	sub	x10,x14,x10
80001f60:	00008067          	jalr	x0,0(x1)
80001f64:	010007b7          	lui	x15,0x1000
80001f68:	02f57263          	bgeu	x10,x15,80001f8c <__clzsi2+0x54>
80001f6c:	0001e797          	auipc	x15,0x1e
80001f70:	0a478793          	addi	x15,x15,164 # 80020010 <__clz_tab>
80001f74:	01055513          	srli	x10,x10,0x10
80001f78:	00a78533          	add	x10,x15,x10
80001f7c:	00054503          	lbu	x10,0(x10)
80001f80:	01000713          	addi	x14,x0,16
80001f84:	40a70533          	sub	x10,x14,x10
80001f88:	00008067          	jalr	x0,0(x1)
80001f8c:	0001e797          	auipc	x15,0x1e
80001f90:	08478793          	addi	x15,x15,132 # 80020010 <__clz_tab>
80001f94:	01855513          	srli	x10,x10,0x18
80001f98:	00a78533          	add	x10,x15,x10
80001f9c:	00054503          	lbu	x10,0(x10)
80001fa0:	00800713          	addi	x14,x0,8
80001fa4:	40a70533          	sub	x10,x14,x10
80001fa8:	00008067          	jalr	x0,0(x1)
80001fac:	0001e797          	auipc	x15,0x1e
80001fb0:	06478793          	addi	x15,x15,100 # 80020010 <__clz_tab>
80001fb4:	00855513          	srli	x10,x10,0x8
80001fb8:	00a78533          	add	x10,x15,x10
80001fbc:	00054503          	lbu	x10,0(x10)
80001fc0:	01800713          	addi	x14,x0,24
80001fc4:	40a70533          	sub	x10,x14,x10
80001fc8:	00008067          	jalr	x0,0(x1)

80001fcc <__mulsi3>:
80001fcc:	00050613          	addi	x12,x10,0
80001fd0:	00000513          	addi	x10,x0,0
80001fd4:	0015f693          	andi	x13,x11,1
80001fd8:	00068463          	beq	x13,x0,80001fe0 <__mulsi3+0x14>
80001fdc:	00c50533          	add	x10,x10,x12
80001fe0:	0015d593          	srli	x11,x11,0x1
80001fe4:	00161613          	slli	x12,x12,0x1
80001fe8:	fe0596e3          	bne	x11,x0,80001fd4 <__mulsi3+0x8>
80001fec:	00008067          	jalr	x0,0(x1)

80001ff0 <__divsi3>:
80001ff0:	06054063          	blt	x10,x0,80002050 <__umodsi3+0x10>
80001ff4:	0605c663          	blt	x11,x0,80002060 <__umodsi3+0x20>

80001ff8 <__udivsi3>:
80001ff8:	00058613          	addi	x12,x11,0
80001ffc:	00050593          	addi	x11,x10,0
80002000:	fff00513          	addi	x10,x0,-1
80002004:	02060c63          	beq	x12,x0,8000203c <__udivsi3+0x44>
80002008:	00100693          	addi	x13,x0,1
8000200c:	00b67a63          	bgeu	x12,x11,80002020 <__udivsi3+0x28>
80002010:	00c05863          	bge	x0,x12,80002020 <__udivsi3+0x28>
80002014:	00161613          	slli	x12,x12,0x1
80002018:	00169693          	slli	x13,x13,0x1
8000201c:	feb66ae3          	bltu	x12,x11,80002010 <__udivsi3+0x18>
80002020:	00000513          	addi	x10,x0,0
80002024:	00c5e663          	bltu	x11,x12,80002030 <__udivsi3+0x38>
80002028:	40c585b3          	sub	x11,x11,x12
8000202c:	00d56533          	or	x10,x10,x13
80002030:	0016d693          	srli	x13,x13,0x1
80002034:	00165613          	srli	x12,x12,0x1
80002038:	fe0696e3          	bne	x13,x0,80002024 <__udivsi3+0x2c>
8000203c:	00008067          	jalr	x0,0(x1)

80002040 <__umodsi3>:
80002040:	00008293          	addi	x5,x1,0
80002044:	fb5ff0ef          	jal	x1,80001ff8 <__udivsi3>
80002048:	00058513          	addi	x10,x11,0
8000204c:	00028067          	jalr	x0,0(x5)
80002050:	40a00533          	sub	x10,x0,x10
80002054:	00b04863          	blt	x0,x11,80002064 <__umodsi3+0x24>
80002058:	40b005b3          	sub	x11,x0,x11
8000205c:	f9dff06f          	jal	x0,80001ff8 <__udivsi3>
80002060:	40b005b3          	sub	x11,x0,x11
80002064:	00008293          	addi	x5,x1,0
80002068:	f91ff0ef          	jal	x1,80001ff8 <__udivsi3>
8000206c:	40a00533          	sub	x10,x0,x10
80002070:	00028067          	jalr	x0,0(x5)

80002074 <__modsi3>:
80002074:	00008293          	addi	x5,x1,0
80002078:	0005ca63          	blt	x11,x0,8000208c <__modsi3+0x18>
8000207c:	00054c63          	blt	x10,x0,80002094 <__modsi3+0x20>
80002080:	f79ff0ef          	jal	x1,80001ff8 <__udivsi3>
80002084:	00058513          	addi	x10,x11,0
80002088:	00028067          	jalr	x0,0(x5)
8000208c:	40b005b3          	sub	x11,x0,x11
80002090:	fe0558e3          	bge	x10,x0,80002080 <__modsi3+0xc>
80002094:	40a00533          	sub	x10,x0,x10
80002098:	f61ff0ef          	jal	x1,80001ff8 <__udivsi3>
8000209c:	40b00533          	sub	x10,x0,x11
800020a0:	00028067          	jalr	x0,0(x5)

800020a4 <memcpy>:
800020a4:	00a5c7b3          	xor	x15,x11,x10
800020a8:	0037f793          	andi	x15,x15,3
800020ac:	00c508b3          	add	x17,x10,x12
800020b0:	06079263          	bne	x15,x0,80002114 <memcpy+0x70>
800020b4:	00300793          	addi	x15,x0,3
800020b8:	04c7fe63          	bgeu	x15,x12,80002114 <memcpy+0x70>
800020bc:	00357793          	andi	x15,x10,3
800020c0:	00050713          	addi	x14,x10,0
800020c4:	06079863          	bne	x15,x0,80002134 <memcpy+0x90>
800020c8:	ffc8f613          	andi	x12,x17,-4
800020cc:	fe060793          	addi	x15,x12,-32
800020d0:	08f76c63          	bltu	x14,x15,80002168 <memcpy+0xc4>
800020d4:	02c77c63          	bgeu	x14,x12,8000210c <memcpy+0x68>
800020d8:	00058693          	addi	x13,x11,0
800020dc:	00070793          	addi	x15,x14,0
800020e0:	0006a803          	lw	x16,0(x13)
800020e4:	00478793          	addi	x15,x15,4
800020e8:	00468693          	addi	x13,x13,4
800020ec:	ff07ae23          	sw	x16,-4(x15)
800020f0:	fec7e8e3          	bltu	x15,x12,800020e0 <memcpy+0x3c>
800020f4:	fff60793          	addi	x15,x12,-1
800020f8:	40e787b3          	sub	x15,x15,x14
800020fc:	ffc7f793          	andi	x15,x15,-4
80002100:	00478793          	addi	x15,x15,4
80002104:	00f70733          	add	x14,x14,x15
80002108:	00f585b3          	add	x11,x11,x15
8000210c:	01176863          	bltu	x14,x17,8000211c <memcpy+0x78>
80002110:	00008067          	jalr	x0,0(x1)
80002114:	00050713          	addi	x14,x10,0
80002118:	ff157ce3          	bgeu	x10,x17,80002110 <memcpy+0x6c>
8000211c:	0005c783          	lbu	x15,0(x11)
80002120:	00170713          	addi	x14,x14,1
80002124:	00158593          	addi	x11,x11,1
80002128:	fef70fa3          	sb	x15,-1(x14)
8000212c:	ff1768e3          	bltu	x14,x17,8000211c <memcpy+0x78>
80002130:	00008067          	jalr	x0,0(x1)
80002134:	0005c683          	lbu	x13,0(x11)
80002138:	00170713          	addi	x14,x14,1
8000213c:	00377793          	andi	x15,x14,3
80002140:	fed70fa3          	sb	x13,-1(x14)
80002144:	00158593          	addi	x11,x11,1
80002148:	f80780e3          	beq	x15,x0,800020c8 <memcpy+0x24>
8000214c:	0005c683          	lbu	x13,0(x11)
80002150:	00170713          	addi	x14,x14,1
80002154:	00377793          	andi	x15,x14,3
80002158:	fed70fa3          	sb	x13,-1(x14)
8000215c:	00158593          	addi	x11,x11,1
80002160:	fc079ae3          	bne	x15,x0,80002134 <memcpy+0x90>
80002164:	f65ff06f          	jal	x0,800020c8 <memcpy+0x24>
80002168:	0045a683          	lw	x13,4(x11)
8000216c:	0005a283          	lw	x5,0(x11)
80002170:	0085af83          	lw	x31,8(x11)
80002174:	00c5af03          	lw	x30,12(x11)
80002178:	0105ae83          	lw	x29,16(x11)
8000217c:	0145ae03          	lw	x28,20(x11)
80002180:	0185a303          	lw	x6,24(x11)
80002184:	01c5a803          	lw	x16,28(x11)
80002188:	00d72223          	sw	x13,4(x14)
8000218c:	0205a683          	lw	x13,32(x11)
80002190:	00572023          	sw	x5,0(x14)
80002194:	01f72423          	sw	x31,8(x14)
80002198:	01e72623          	sw	x30,12(x14)
8000219c:	01d72823          	sw	x29,16(x14)
800021a0:	01c72a23          	sw	x28,20(x14)
800021a4:	00672c23          	sw	x6,24(x14)
800021a8:	01072e23          	sw	x16,28(x14)
800021ac:	02d72023          	sw	x13,32(x14)
800021b0:	02470713          	addi	x14,x14,36
800021b4:	02458593          	addi	x11,x11,36
800021b8:	faf768e3          	bltu	x14,x15,80002168 <memcpy+0xc4>
800021bc:	f19ff06f          	jal	x0,800020d4 <memcpy+0x30>

800021c0 <memset>:
800021c0:	00f00313          	addi	x6,x0,15
800021c4:	00050713          	addi	x14,x10,0
800021c8:	02c37e63          	bgeu	x6,x12,80002204 <memset+0x44>
800021cc:	00f77793          	andi	x15,x14,15
800021d0:	0a079063          	bne	x15,x0,80002270 <memset+0xb0>
800021d4:	08059263          	bne	x11,x0,80002258 <memset+0x98>
800021d8:	ff067693          	andi	x13,x12,-16
800021dc:	00f67613          	andi	x12,x12,15
800021e0:	00e686b3          	add	x13,x13,x14
800021e4:	00b72023          	sw	x11,0(x14)
800021e8:	00b72223          	sw	x11,4(x14)
800021ec:	00b72423          	sw	x11,8(x14)
800021f0:	00b72623          	sw	x11,12(x14)
800021f4:	01070713          	addi	x14,x14,16
800021f8:	fed766e3          	bltu	x14,x13,800021e4 <memset+0x24>
800021fc:	00061463          	bne	x12,x0,80002204 <memset+0x44>
80002200:	00008067          	jalr	x0,0(x1)
80002204:	40c306b3          	sub	x13,x6,x12
80002208:	00269693          	slli	x13,x13,0x2
8000220c:	00000297          	auipc	x5,0x0
80002210:	005686b3          	add	x13,x13,x5
80002214:	00c68067          	jalr	x0,12(x13)
80002218:	00b70723          	sb	x11,14(x14)
8000221c:	00b706a3          	sb	x11,13(x14)
80002220:	00b70623          	sb	x11,12(x14)
80002224:	00b705a3          	sb	x11,11(x14)
80002228:	00b70523          	sb	x11,10(x14)
8000222c:	00b704a3          	sb	x11,9(x14)
80002230:	00b70423          	sb	x11,8(x14)
80002234:	00b703a3          	sb	x11,7(x14)
80002238:	00b70323          	sb	x11,6(x14)
8000223c:	00b702a3          	sb	x11,5(x14)
80002240:	00b70223          	sb	x11,4(x14)
80002244:	00b701a3          	sb	x11,3(x14)
80002248:	00b70123          	sb	x11,2(x14)
8000224c:	00b700a3          	sb	x11,1(x14)
80002250:	00b70023          	sb	x11,0(x14)
80002254:	00008067          	jalr	x0,0(x1)
80002258:	0ff5f593          	andi	x11,x11,255
8000225c:	00859693          	slli	x13,x11,0x8
80002260:	00d5e5b3          	or	x11,x11,x13
80002264:	01059693          	slli	x13,x11,0x10
80002268:	00d5e5b3          	or	x11,x11,x13
8000226c:	f6dff06f          	jal	x0,800021d8 <memset+0x18>
80002270:	00279693          	slli	x13,x15,0x2
80002274:	00000297          	auipc	x5,0x0
80002278:	005686b3          	add	x13,x13,x5
8000227c:	00008293          	addi	x5,x1,0
80002280:	fa0680e7          	jalr	x1,-96(x13)
80002284:	00028093          	addi	x1,x5,0 # 80002274 <memset+0xb4>
80002288:	ff078793          	addi	x15,x15,-16
8000228c:	40f70733          	sub	x14,x14,x15
80002290:	00f60633          	add	x12,x12,x15
80002294:	f6c378e3          	bgeu	x6,x12,80002204 <memset+0x44>
80002298:	f3dff06f          	jal	x0,800021d4 <memset+0x14>

Disassembly of section .data:

80020000 <__clz_tab-0x10>:
80020000:	4449                	c.li	x8,18
80020002:	454c                	c.lw	x11,12(x10)
80020004:	0000                	c.unimp
80020006:	0000                	c.unimp
80020008:	7852                	c.flwsp	f16,52(x2)
8002000a:	0000                	c.unimp
8002000c:	5854                	c.lw	x13,52(x8)
8002000e:	0000                	c.unimp

80020010 <__clz_tab>:
80020010:	0100                	c.addi4spn	x8,x2,128
80020012:	0202                	c.slli64	x4
80020014:	03030303          	lb	x6,48(x6)
80020018:	0404                	c.addi4spn	x9,x2,512
8002001a:	0404                	c.addi4spn	x9,x2,512
8002001c:	0404                	c.addi4spn	x9,x2,512
8002001e:	0404                	c.addi4spn	x9,x2,512
80020020:	0505                	c.addi	x10,1
80020022:	0505                	c.addi	x10,1
80020024:	0505                	c.addi	x10,1
80020026:	0505                	c.addi	x10,1
80020028:	0505                	c.addi	x10,1
8002002a:	0505                	c.addi	x10,1
8002002c:	0505                	c.addi	x10,1
8002002e:	0505                	c.addi	x10,1
80020030:	0606                	c.slli	x12,0x1
80020032:	0606                	c.slli	x12,0x1
80020034:	0606                	c.slli	x12,0x1
80020036:	0606                	c.slli	x12,0x1
80020038:	0606                	c.slli	x12,0x1
8002003a:	0606                	c.slli	x12,0x1
8002003c:	0606                	c.slli	x12,0x1
8002003e:	0606                	c.slli	x12,0x1
80020040:	0606                	c.slli	x12,0x1
80020042:	0606                	c.slli	x12,0x1
80020044:	0606                	c.slli	x12,0x1
80020046:	0606                	c.slli	x12,0x1
80020048:	0606                	c.slli	x12,0x1
8002004a:	0606                	c.slli	x12,0x1
8002004c:	0606                	c.slli	x12,0x1
8002004e:	0606                	c.slli	x12,0x1
80020050:	07070707          	0x7070707
80020054:	07070707          	0x7070707
80020058:	07070707          	0x7070707
8002005c:	07070707          	0x7070707
80020060:	07070707          	0x7070707
80020064:	07070707          	0x7070707
80020068:	07070707          	0x7070707
8002006c:	07070707          	0x7070707
80020070:	07070707          	0x7070707
80020074:	07070707          	0x7070707
80020078:	07070707          	0x7070707
8002007c:	07070707          	0x7070707
80020080:	07070707          	0x7070707
80020084:	07070707          	0x7070707
80020088:	07070707          	0x7070707
8002008c:	07070707          	0x7070707
80020090:	0808                	c.addi4spn	x10,x2,16
80020092:	0808                	c.addi4spn	x10,x2,16
80020094:	0808                	c.addi4spn	x10,x2,16
80020096:	0808                	c.addi4spn	x10,x2,16
80020098:	0808                	c.addi4spn	x10,x2,16
8002009a:	0808                	c.addi4spn	x10,x2,16
8002009c:	0808                	c.addi4spn	x10,x2,16
8002009e:	0808                	c.addi4spn	x10,x2,16
800200a0:	0808                	c.addi4spn	x10,x2,16
800200a2:	0808                	c.addi4spn	x10,x2,16
800200a4:	0808                	c.addi4spn	x10,x2,16
800200a6:	0808                	c.addi4spn	x10,x2,16
800200a8:	0808                	c.addi4spn	x10,x2,16
800200aa:	0808                	c.addi4spn	x10,x2,16
800200ac:	0808                	c.addi4spn	x10,x2,16
800200ae:	0808                	c.addi4spn	x10,x2,16
800200b0:	0808                	c.addi4spn	x10,x2,16
800200b2:	0808                	c.addi4spn	x10,x2,16
800200b4:	0808                	c.addi4spn	x10,x2,16
800200b6:	0808                	c.addi4spn	x10,x2,16
800200b8:	0808                	c.addi4spn	x10,x2,16
800200ba:	0808                	c.addi4spn	x10,x2,16
800200bc:	0808                	c.addi4spn	x10,x2,16
800200be:	0808                	c.addi4spn	x10,x2,16
800200c0:	0808                	c.addi4spn	x10,x2,16
800200c2:	0808                	c.addi4spn	x10,x2,16
800200c4:	0808                	c.addi4spn	x10,x2,16
800200c6:	0808                	c.addi4spn	x10,x2,16
800200c8:	0808                	c.addi4spn	x10,x2,16
800200ca:	0808                	c.addi4spn	x10,x2,16
800200cc:	0808                	c.addi4spn	x10,x2,16
800200ce:	0808                	c.addi4spn	x10,x2,16
800200d0:	0808                	c.addi4spn	x10,x2,16
800200d2:	0808                	c.addi4spn	x10,x2,16
800200d4:	0808                	c.addi4spn	x10,x2,16
800200d6:	0808                	c.addi4spn	x10,x2,16
800200d8:	0808                	c.addi4spn	x10,x2,16
800200da:	0808                	c.addi4spn	x10,x2,16
800200dc:	0808                	c.addi4spn	x10,x2,16
800200de:	0808                	c.addi4spn	x10,x2,16
800200e0:	0808                	c.addi4spn	x10,x2,16
800200e2:	0808                	c.addi4spn	x10,x2,16
800200e4:	0808                	c.addi4spn	x10,x2,16
800200e6:	0808                	c.addi4spn	x10,x2,16
800200e8:	0808                	c.addi4spn	x10,x2,16
800200ea:	0808                	c.addi4spn	x10,x2,16
800200ec:	0808                	c.addi4spn	x10,x2,16
800200ee:	0808                	c.addi4spn	x10,x2,16
800200f0:	0808                	c.addi4spn	x10,x2,16
800200f2:	0808                	c.addi4spn	x10,x2,16
800200f4:	0808                	c.addi4spn	x10,x2,16
800200f6:	0808                	c.addi4spn	x10,x2,16
800200f8:	0808                	c.addi4spn	x10,x2,16
800200fa:	0808                	c.addi4spn	x10,x2,16
800200fc:	0808                	c.addi4spn	x10,x2,16
800200fe:	0808                	c.addi4spn	x10,x2,16
80020100:	0808                	c.addi4spn	x10,x2,16
80020102:	0808                	c.addi4spn	x10,x2,16
80020104:	0808                	c.addi4spn	x10,x2,16
80020106:	0808                	c.addi4spn	x10,x2,16
80020108:	0808                	c.addi4spn	x10,x2,16
8002010a:	0808                	c.addi4spn	x10,x2,16
8002010c:	0808                	c.addi4spn	x10,x2,16
8002010e:	0808                	c.addi4spn	x10,x2,16

80020110 <uxTopUsedPriority>:
80020110:	0006                	c.slli	x0,0x1
80020112:	0000                	c.unimp

80020114 <pullNextTime>:
80020114:	0160                	c.addi4spn	x8,x2,140
80020116:	8002                	0x8002

80020118 <uxTimerIncrementsForOneTick>:
80020118:	c350                	c.sw	x12,4(x14)
8002011a:	0000                	c.unimp

8002011c <xISRStackTop>:
8002011c:	2000                	c.fld	f8,0(x8)
8002011e:	8002                	0x8002

Disassembly of section .bss:

80020120 <pxCurrentTCB>:
80020120:	0000                	c.unimp
80020122:	0000                	c.unimp

80020124 <pxDelayedTaskList>:
80020124:	0000                	c.unimp
80020126:	0000                	c.unimp

80020128 <pxOverflowDelayedTaskList>:
80020128:	0000                	c.unimp
8002012a:	0000                	c.unimp

8002012c <uxCurrentNumberOfTasks>:
8002012c:	0000                	c.unimp
8002012e:	0000                	c.unimp

80020130 <uxDeletedTasksWaitingCleanUp>:
80020130:	0000                	c.unimp
80020132:	0000                	c.unimp

80020134 <uxSchedulerSuspended>:
80020134:	0000                	c.unimp
80020136:	0000                	c.unimp

80020138 <uxTaskNumber>:
80020138:	0000                	c.unimp
8002013a:	0000                	c.unimp

8002013c <uxTopReadyPriority>:
8002013c:	0000                	c.unimp
8002013e:	0000                	c.unimp

80020140 <xIdleTaskHandle>:
80020140:	0000                	c.unimp
80020142:	0000                	c.unimp

80020144 <xNextTaskUnblockTime>:
80020144:	0000                	c.unimp
80020146:	0000                	c.unimp

80020148 <xNumOfOverflows>:
80020148:	0000                	c.unimp
8002014a:	0000                	c.unimp

8002014c <xPendedTicks>:
8002014c:	0000                	c.unimp
8002014e:	0000                	c.unimp

80020150 <xSchedulerRunning>:
80020150:	0000                	c.unimp
80020152:	0000                	c.unimp

80020154 <xTickCount>:
80020154:	0000                	c.unimp
80020156:	0000                	c.unimp

80020158 <xYieldPending>:
80020158:	0000                	c.unimp
8002015a:	0000                	c.unimp

8002015c <pullMachineTimerCompareRegister>:
8002015c:	0000                	c.unimp
8002015e:	0000                	c.unimp

80020160 <ullNextTime>:
80020160:	0000                	c.unimp
80020162:	0000                	c.unimp
80020164:	0000                	c.unimp
80020166:	0000                	c.unimp

80020168 <pucAlignedHeap.0>:
80020168:	0000                	c.unimp
8002016a:	0000                	c.unimp

8002016c <xNextFreeByte>:
8002016c:	0000                	c.unimp
8002016e:	0000                	c.unimp

80020170 <xQueue>:
80020170:	0000                	c.unimp
80020172:	0000                	c.unimp

80020174 <pxReadyTasksLists>:
80020174:	0000                	c.unimp
80020176:	0000                	c.unimp
80020178:	0000                	c.unimp
8002017a:	0000                	c.unimp
8002017c:	0000                	c.unimp
8002017e:	0000                	c.unimp
80020180:	0000                	c.unimp
80020182:	0000                	c.unimp
80020184:	0000                	c.unimp
80020186:	0000                	c.unimp
80020188:	0000                	c.unimp
8002018a:	0000                	c.unimp
8002018c:	0000                	c.unimp
8002018e:	0000                	c.unimp
80020190:	0000                	c.unimp
80020192:	0000                	c.unimp
80020194:	0000                	c.unimp
80020196:	0000                	c.unimp
80020198:	0000                	c.unimp
8002019a:	0000                	c.unimp
8002019c:	0000                	c.unimp
8002019e:	0000                	c.unimp
800201a0:	0000                	c.unimp
800201a2:	0000                	c.unimp
800201a4:	0000                	c.unimp
800201a6:	0000                	c.unimp
800201a8:	0000                	c.unimp
800201aa:	0000                	c.unimp
800201ac:	0000                	c.unimp
800201ae:	0000                	c.unimp
800201b0:	0000                	c.unimp
800201b2:	0000                	c.unimp
800201b4:	0000                	c.unimp
800201b6:	0000                	c.unimp
800201b8:	0000                	c.unimp
800201ba:	0000                	c.unimp
800201bc:	0000                	c.unimp
800201be:	0000                	c.unimp
800201c0:	0000                	c.unimp
800201c2:	0000                	c.unimp
800201c4:	0000                	c.unimp
800201c6:	0000                	c.unimp
800201c8:	0000                	c.unimp
800201ca:	0000                	c.unimp
800201cc:	0000                	c.unimp
800201ce:	0000                	c.unimp
800201d0:	0000                	c.unimp
800201d2:	0000                	c.unimp
800201d4:	0000                	c.unimp
800201d6:	0000                	c.unimp
800201d8:	0000                	c.unimp
800201da:	0000                	c.unimp
800201dc:	0000                	c.unimp
800201de:	0000                	c.unimp
800201e0:	0000                	c.unimp
800201e2:	0000                	c.unimp
800201e4:	0000                	c.unimp
800201e6:	0000                	c.unimp
800201e8:	0000                	c.unimp
800201ea:	0000                	c.unimp
800201ec:	0000                	c.unimp
800201ee:	0000                	c.unimp
800201f0:	0000                	c.unimp
800201f2:	0000                	c.unimp
800201f4:	0000                	c.unimp
800201f6:	0000                	c.unimp
800201f8:	0000                	c.unimp
800201fa:	0000                	c.unimp
800201fc:	0000                	c.unimp
800201fe:	0000                	c.unimp

80020200 <xDelayedTaskList1>:
80020200:	0000                	c.unimp
80020202:	0000                	c.unimp
80020204:	0000                	c.unimp
80020206:	0000                	c.unimp
80020208:	0000                	c.unimp
8002020a:	0000                	c.unimp
8002020c:	0000                	c.unimp
8002020e:	0000                	c.unimp
80020210:	0000                	c.unimp
80020212:	0000                	c.unimp

80020214 <xDelayedTaskList2>:
80020214:	0000                	c.unimp
80020216:	0000                	c.unimp
80020218:	0000                	c.unimp
8002021a:	0000                	c.unimp
8002021c:	0000                	c.unimp
8002021e:	0000                	c.unimp
80020220:	0000                	c.unimp
80020222:	0000                	c.unimp
80020224:	0000                	c.unimp
80020226:	0000                	c.unimp

80020228 <xPendingReadyList>:
80020228:	0000                	c.unimp
8002022a:	0000                	c.unimp
8002022c:	0000                	c.unimp
8002022e:	0000                	c.unimp
80020230:	0000                	c.unimp
80020232:	0000                	c.unimp
80020234:	0000                	c.unimp
80020236:	0000                	c.unimp
80020238:	0000                	c.unimp
8002023a:	0000                	c.unimp

8002023c <xSuspendedTaskList>:
8002023c:	0000                	c.unimp
8002023e:	0000                	c.unimp
80020240:	0000                	c.unimp
80020242:	0000                	c.unimp
80020244:	0000                	c.unimp
80020246:	0000                	c.unimp
80020248:	0000                	c.unimp
8002024a:	0000                	c.unimp
8002024c:	0000                	c.unimp
8002024e:	0000                	c.unimp

80020250 <xTasksWaitingTermination>:
80020250:	0000                	c.unimp
80020252:	0000                	c.unimp
80020254:	0000                	c.unimp
80020256:	0000                	c.unimp
80020258:	0000                	c.unimp
8002025a:	0000                	c.unimp
8002025c:	0000                	c.unimp
8002025e:	0000                	c.unimp
80020260:	0000                	c.unimp
80020262:	0000                	c.unimp

80020264 <ucHeap>:
80020264:	0000                	c.unimp
80020266:	0000                	c.unimp
80020268:	0000                	c.unimp
8002026a:	0000                	c.unimp
8002026c:	0000                	c.unimp
8002026e:	0000                	c.unimp
80020270:	0000                	c.unimp
80020272:	0000                	c.unimp
80020274:	0000                	c.unimp
80020276:	0000                	c.unimp
80020278:	0000                	c.unimp
8002027a:	0000                	c.unimp
8002027c:	0000                	c.unimp
8002027e:	0000                	c.unimp
80020280:	0000                	c.unimp
80020282:	0000                	c.unimp
80020284:	0000                	c.unimp
80020286:	0000                	c.unimp
80020288:	0000                	c.unimp
8002028a:	0000                	c.unimp
8002028c:	0000                	c.unimp
8002028e:	0000                	c.unimp
80020290:	0000                	c.unimp
80020292:	0000                	c.unimp
80020294:	0000                	c.unimp
80020296:	0000                	c.unimp
80020298:	0000                	c.unimp
8002029a:	0000                	c.unimp
8002029c:	0000                	c.unimp
8002029e:	0000                	c.unimp
800202a0:	0000                	c.unimp
800202a2:	0000                	c.unimp
800202a4:	0000                	c.unimp
800202a6:	0000                	c.unimp
800202a8:	0000                	c.unimp
800202aa:	0000                	c.unimp
800202ac:	0000                	c.unimp
800202ae:	0000                	c.unimp
800202b0:	0000                	c.unimp
800202b2:	0000                	c.unimp
800202b4:	0000                	c.unimp
800202b6:	0000                	c.unimp
800202b8:	0000                	c.unimp
800202ba:	0000                	c.unimp
800202bc:	0000                	c.unimp
800202be:	0000                	c.unimp
800202c0:	0000                	c.unimp
800202c2:	0000                	c.unimp
800202c4:	0000                	c.unimp
800202c6:	0000                	c.unimp
800202c8:	0000                	c.unimp
800202ca:	0000                	c.unimp
800202cc:	0000                	c.unimp
800202ce:	0000                	c.unimp
800202d0:	0000                	c.unimp
800202d2:	0000                	c.unimp
800202d4:	0000                	c.unimp
800202d6:	0000                	c.unimp
800202d8:	0000                	c.unimp
800202da:	0000                	c.unimp
800202dc:	0000                	c.unimp
800202de:	0000                	c.unimp
800202e0:	0000                	c.unimp
800202e2:	0000                	c.unimp
800202e4:	0000                	c.unimp
800202e6:	0000                	c.unimp
800202e8:	0000                	c.unimp
800202ea:	0000                	c.unimp
800202ec:	0000                	c.unimp
800202ee:	0000                	c.unimp
800202f0:	0000                	c.unimp
800202f2:	0000                	c.unimp
800202f4:	0000                	c.unimp
800202f6:	0000                	c.unimp
800202f8:	0000                	c.unimp
800202fa:	0000                	c.unimp
800202fc:	0000                	c.unimp
800202fe:	0000                	c.unimp
80020300:	0000                	c.unimp
80020302:	0000                	c.unimp
80020304:	0000                	c.unimp
80020306:	0000                	c.unimp
80020308:	0000                	c.unimp
8002030a:	0000                	c.unimp
8002030c:	0000                	c.unimp
8002030e:	0000                	c.unimp
80020310:	0000                	c.unimp
80020312:	0000                	c.unimp
80020314:	0000                	c.unimp
80020316:	0000                	c.unimp
80020318:	0000                	c.unimp
8002031a:	0000                	c.unimp
8002031c:	0000                	c.unimp
8002031e:	0000                	c.unimp
80020320:	0000                	c.unimp
80020322:	0000                	c.unimp
80020324:	0000                	c.unimp
80020326:	0000                	c.unimp
80020328:	0000                	c.unimp
8002032a:	0000                	c.unimp
8002032c:	0000                	c.unimp
8002032e:	0000                	c.unimp
80020330:	0000                	c.unimp
80020332:	0000                	c.unimp
80020334:	0000                	c.unimp
80020336:	0000                	c.unimp
80020338:	0000                	c.unimp
8002033a:	0000                	c.unimp
8002033c:	0000                	c.unimp
8002033e:	0000                	c.unimp
80020340:	0000                	c.unimp
80020342:	0000                	c.unimp
80020344:	0000                	c.unimp
80020346:	0000                	c.unimp
80020348:	0000                	c.unimp
8002034a:	0000                	c.unimp
8002034c:	0000                	c.unimp
8002034e:	0000                	c.unimp
80020350:	0000                	c.unimp
80020352:	0000                	c.unimp
80020354:	0000                	c.unimp
80020356:	0000                	c.unimp
80020358:	0000                	c.unimp
8002035a:	0000                	c.unimp
8002035c:	0000                	c.unimp
8002035e:	0000                	c.unimp
80020360:	0000                	c.unimp
80020362:	0000                	c.unimp
80020364:	0000                	c.unimp
80020366:	0000                	c.unimp
80020368:	0000                	c.unimp
8002036a:	0000                	c.unimp
8002036c:	0000                	c.unimp
8002036e:	0000                	c.unimp
80020370:	0000                	c.unimp
80020372:	0000                	c.unimp
80020374:	0000                	c.unimp
80020376:	0000                	c.unimp
80020378:	0000                	c.unimp
8002037a:	0000                	c.unimp
8002037c:	0000                	c.unimp
8002037e:	0000                	c.unimp
80020380:	0000                	c.unimp
80020382:	0000                	c.unimp
80020384:	0000                	c.unimp
80020386:	0000                	c.unimp
80020388:	0000                	c.unimp
8002038a:	0000                	c.unimp
8002038c:	0000                	c.unimp
8002038e:	0000                	c.unimp
80020390:	0000                	c.unimp
80020392:	0000                	c.unimp
80020394:	0000                	c.unimp
80020396:	0000                	c.unimp
80020398:	0000                	c.unimp
8002039a:	0000                	c.unimp
8002039c:	0000                	c.unimp
8002039e:	0000                	c.unimp
800203a0:	0000                	c.unimp
800203a2:	0000                	c.unimp
800203a4:	0000                	c.unimp
800203a6:	0000                	c.unimp
800203a8:	0000                	c.unimp
800203aa:	0000                	c.unimp
800203ac:	0000                	c.unimp
800203ae:	0000                	c.unimp
800203b0:	0000                	c.unimp
800203b2:	0000                	c.unimp
800203b4:	0000                	c.unimp
800203b6:	0000                	c.unimp
800203b8:	0000                	c.unimp
800203ba:	0000                	c.unimp
800203bc:	0000                	c.unimp
800203be:	0000                	c.unimp
800203c0:	0000                	c.unimp
800203c2:	0000                	c.unimp
800203c4:	0000                	c.unimp
800203c6:	0000                	c.unimp
800203c8:	0000                	c.unimp
800203ca:	0000                	c.unimp
800203cc:	0000                	c.unimp
800203ce:	0000                	c.unimp
800203d0:	0000                	c.unimp
800203d2:	0000                	c.unimp
800203d4:	0000                	c.unimp
800203d6:	0000                	c.unimp
800203d8:	0000                	c.unimp
800203da:	0000                	c.unimp
800203dc:	0000                	c.unimp
800203de:	0000                	c.unimp
800203e0:	0000                	c.unimp
800203e2:	0000                	c.unimp
800203e4:	0000                	c.unimp
800203e6:	0000                	c.unimp
800203e8:	0000                	c.unimp
800203ea:	0000                	c.unimp
800203ec:	0000                	c.unimp
800203ee:	0000                	c.unimp
800203f0:	0000                	c.unimp
800203f2:	0000                	c.unimp
800203f4:	0000                	c.unimp
800203f6:	0000                	c.unimp
800203f8:	0000                	c.unimp
800203fa:	0000                	c.unimp
800203fc:	0000                	c.unimp
800203fe:	0000                	c.unimp
80020400:	0000                	c.unimp
80020402:	0000                	c.unimp
80020404:	0000                	c.unimp
80020406:	0000                	c.unimp
80020408:	0000                	c.unimp
8002040a:	0000                	c.unimp
8002040c:	0000                	c.unimp
8002040e:	0000                	c.unimp
80020410:	0000                	c.unimp
80020412:	0000                	c.unimp
80020414:	0000                	c.unimp
80020416:	0000                	c.unimp
80020418:	0000                	c.unimp
8002041a:	0000                	c.unimp
8002041c:	0000                	c.unimp
8002041e:	0000                	c.unimp
80020420:	0000                	c.unimp
80020422:	0000                	c.unimp
80020424:	0000                	c.unimp
80020426:	0000                	c.unimp
80020428:	0000                	c.unimp
8002042a:	0000                	c.unimp
8002042c:	0000                	c.unimp
8002042e:	0000                	c.unimp
80020430:	0000                	c.unimp
80020432:	0000                	c.unimp
80020434:	0000                	c.unimp
80020436:	0000                	c.unimp
80020438:	0000                	c.unimp
8002043a:	0000                	c.unimp
8002043c:	0000                	c.unimp
8002043e:	0000                	c.unimp
80020440:	0000                	c.unimp
80020442:	0000                	c.unimp
80020444:	0000                	c.unimp
80020446:	0000                	c.unimp
80020448:	0000                	c.unimp
8002044a:	0000                	c.unimp
8002044c:	0000                	c.unimp
8002044e:	0000                	c.unimp
80020450:	0000                	c.unimp
80020452:	0000                	c.unimp
80020454:	0000                	c.unimp
80020456:	0000                	c.unimp
80020458:	0000                	c.unimp
8002045a:	0000                	c.unimp
8002045c:	0000                	c.unimp
8002045e:	0000                	c.unimp
80020460:	0000                	c.unimp
80020462:	0000                	c.unimp
80020464:	0000                	c.unimp
80020466:	0000                	c.unimp
80020468:	0000                	c.unimp
8002046a:	0000                	c.unimp
8002046c:	0000                	c.unimp
8002046e:	0000                	c.unimp
80020470:	0000                	c.unimp
80020472:	0000                	c.unimp
80020474:	0000                	c.unimp
80020476:	0000                	c.unimp
80020478:	0000                	c.unimp
8002047a:	0000                	c.unimp
8002047c:	0000                	c.unimp
8002047e:	0000                	c.unimp
80020480:	0000                	c.unimp
80020482:	0000                	c.unimp
80020484:	0000                	c.unimp
80020486:	0000                	c.unimp
80020488:	0000                	c.unimp
8002048a:	0000                	c.unimp
8002048c:	0000                	c.unimp
8002048e:	0000                	c.unimp
80020490:	0000                	c.unimp
80020492:	0000                	c.unimp
80020494:	0000                	c.unimp
80020496:	0000                	c.unimp
80020498:	0000                	c.unimp
8002049a:	0000                	c.unimp
8002049c:	0000                	c.unimp
8002049e:	0000                	c.unimp
800204a0:	0000                	c.unimp
800204a2:	0000                	c.unimp
800204a4:	0000                	c.unimp
800204a6:	0000                	c.unimp
800204a8:	0000                	c.unimp
800204aa:	0000                	c.unimp
800204ac:	0000                	c.unimp
800204ae:	0000                	c.unimp
800204b0:	0000                	c.unimp
800204b2:	0000                	c.unimp
800204b4:	0000                	c.unimp
800204b6:	0000                	c.unimp
800204b8:	0000                	c.unimp
800204ba:	0000                	c.unimp
800204bc:	0000                	c.unimp
800204be:	0000                	c.unimp
800204c0:	0000                	c.unimp
800204c2:	0000                	c.unimp
800204c4:	0000                	c.unimp
800204c6:	0000                	c.unimp
800204c8:	0000                	c.unimp
800204ca:	0000                	c.unimp
800204cc:	0000                	c.unimp
800204ce:	0000                	c.unimp
800204d0:	0000                	c.unimp
800204d2:	0000                	c.unimp
800204d4:	0000                	c.unimp
800204d6:	0000                	c.unimp
800204d8:	0000                	c.unimp
800204da:	0000                	c.unimp
800204dc:	0000                	c.unimp
800204de:	0000                	c.unimp
800204e0:	0000                	c.unimp
800204e2:	0000                	c.unimp
800204e4:	0000                	c.unimp
800204e6:	0000                	c.unimp
800204e8:	0000                	c.unimp
800204ea:	0000                	c.unimp
800204ec:	0000                	c.unimp
800204ee:	0000                	c.unimp
800204f0:	0000                	c.unimp
800204f2:	0000                	c.unimp
800204f4:	0000                	c.unimp
800204f6:	0000                	c.unimp
800204f8:	0000                	c.unimp
800204fa:	0000                	c.unimp
800204fc:	0000                	c.unimp
800204fe:	0000                	c.unimp
80020500:	0000                	c.unimp
80020502:	0000                	c.unimp
80020504:	0000                	c.unimp
80020506:	0000                	c.unimp
80020508:	0000                	c.unimp
8002050a:	0000                	c.unimp
8002050c:	0000                	c.unimp
8002050e:	0000                	c.unimp
80020510:	0000                	c.unimp
80020512:	0000                	c.unimp
80020514:	0000                	c.unimp
80020516:	0000                	c.unimp
80020518:	0000                	c.unimp
8002051a:	0000                	c.unimp
8002051c:	0000                	c.unimp
8002051e:	0000                	c.unimp
80020520:	0000                	c.unimp
80020522:	0000                	c.unimp
80020524:	0000                	c.unimp
80020526:	0000                	c.unimp
80020528:	0000                	c.unimp
8002052a:	0000                	c.unimp
8002052c:	0000                	c.unimp
8002052e:	0000                	c.unimp
80020530:	0000                	c.unimp
80020532:	0000                	c.unimp
80020534:	0000                	c.unimp
80020536:	0000                	c.unimp
80020538:	0000                	c.unimp
8002053a:	0000                	c.unimp
8002053c:	0000                	c.unimp
8002053e:	0000                	c.unimp
80020540:	0000                	c.unimp
80020542:	0000                	c.unimp
80020544:	0000                	c.unimp
80020546:	0000                	c.unimp
80020548:	0000                	c.unimp
8002054a:	0000                	c.unimp
8002054c:	0000                	c.unimp
8002054e:	0000                	c.unimp
80020550:	0000                	c.unimp
80020552:	0000                	c.unimp
80020554:	0000                	c.unimp
80020556:	0000                	c.unimp
80020558:	0000                	c.unimp
8002055a:	0000                	c.unimp
8002055c:	0000                	c.unimp
8002055e:	0000                	c.unimp
80020560:	0000                	c.unimp
80020562:	0000                	c.unimp
80020564:	0000                	c.unimp
80020566:	0000                	c.unimp
80020568:	0000                	c.unimp
8002056a:	0000                	c.unimp
8002056c:	0000                	c.unimp
8002056e:	0000                	c.unimp
80020570:	0000                	c.unimp
80020572:	0000                	c.unimp
80020574:	0000                	c.unimp
80020576:	0000                	c.unimp
80020578:	0000                	c.unimp
8002057a:	0000                	c.unimp
8002057c:	0000                	c.unimp
8002057e:	0000                	c.unimp
80020580:	0000                	c.unimp
80020582:	0000                	c.unimp
80020584:	0000                	c.unimp
80020586:	0000                	c.unimp
80020588:	0000                	c.unimp
8002058a:	0000                	c.unimp
8002058c:	0000                	c.unimp
8002058e:	0000                	c.unimp
80020590:	0000                	c.unimp
80020592:	0000                	c.unimp
80020594:	0000                	c.unimp
80020596:	0000                	c.unimp
80020598:	0000                	c.unimp
8002059a:	0000                	c.unimp
8002059c:	0000                	c.unimp
8002059e:	0000                	c.unimp
800205a0:	0000                	c.unimp
800205a2:	0000                	c.unimp
800205a4:	0000                	c.unimp
800205a6:	0000                	c.unimp
800205a8:	0000                	c.unimp
800205aa:	0000                	c.unimp
800205ac:	0000                	c.unimp
800205ae:	0000                	c.unimp
800205b0:	0000                	c.unimp
800205b2:	0000                	c.unimp
800205b4:	0000                	c.unimp
800205b6:	0000                	c.unimp
800205b8:	0000                	c.unimp
800205ba:	0000                	c.unimp
800205bc:	0000                	c.unimp
800205be:	0000                	c.unimp
800205c0:	0000                	c.unimp
800205c2:	0000                	c.unimp
800205c4:	0000                	c.unimp
800205c6:	0000                	c.unimp
800205c8:	0000                	c.unimp
800205ca:	0000                	c.unimp
800205cc:	0000                	c.unimp
800205ce:	0000                	c.unimp
800205d0:	0000                	c.unimp
800205d2:	0000                	c.unimp
800205d4:	0000                	c.unimp
800205d6:	0000                	c.unimp
800205d8:	0000                	c.unimp
800205da:	0000                	c.unimp
800205dc:	0000                	c.unimp
800205de:	0000                	c.unimp
800205e0:	0000                	c.unimp
800205e2:	0000                	c.unimp
800205e4:	0000                	c.unimp
800205e6:	0000                	c.unimp
800205e8:	0000                	c.unimp
800205ea:	0000                	c.unimp
800205ec:	0000                	c.unimp
800205ee:	0000                	c.unimp
800205f0:	0000                	c.unimp
800205f2:	0000                	c.unimp
800205f4:	0000                	c.unimp
800205f6:	0000                	c.unimp
800205f8:	0000                	c.unimp
800205fa:	0000                	c.unimp
800205fc:	0000                	c.unimp
800205fe:	0000                	c.unimp
80020600:	0000                	c.unimp
80020602:	0000                	c.unimp
80020604:	0000                	c.unimp
80020606:	0000                	c.unimp
80020608:	0000                	c.unimp
8002060a:	0000                	c.unimp
8002060c:	0000                	c.unimp
8002060e:	0000                	c.unimp
80020610:	0000                	c.unimp
80020612:	0000                	c.unimp
80020614:	0000                	c.unimp
80020616:	0000                	c.unimp
80020618:	0000                	c.unimp
8002061a:	0000                	c.unimp
8002061c:	0000                	c.unimp
8002061e:	0000                	c.unimp
80020620:	0000                	c.unimp
80020622:	0000                	c.unimp
80020624:	0000                	c.unimp
80020626:	0000                	c.unimp
80020628:	0000                	c.unimp
8002062a:	0000                	c.unimp
8002062c:	0000                	c.unimp
8002062e:	0000                	c.unimp
80020630:	0000                	c.unimp
80020632:	0000                	c.unimp
80020634:	0000                	c.unimp
80020636:	0000                	c.unimp
80020638:	0000                	c.unimp
8002063a:	0000                	c.unimp
8002063c:	0000                	c.unimp
8002063e:	0000                	c.unimp
80020640:	0000                	c.unimp
80020642:	0000                	c.unimp
80020644:	0000                	c.unimp
80020646:	0000                	c.unimp
80020648:	0000                	c.unimp
8002064a:	0000                	c.unimp
8002064c:	0000                	c.unimp
8002064e:	0000                	c.unimp
80020650:	0000                	c.unimp
80020652:	0000                	c.unimp
80020654:	0000                	c.unimp
80020656:	0000                	c.unimp
80020658:	0000                	c.unimp
8002065a:	0000                	c.unimp
8002065c:	0000                	c.unimp
8002065e:	0000                	c.unimp
80020660:	0000                	c.unimp
80020662:	0000                	c.unimp
80020664:	0000                	c.unimp
80020666:	0000                	c.unimp
80020668:	0000                	c.unimp
8002066a:	0000                	c.unimp
8002066c:	0000                	c.unimp
8002066e:	0000                	c.unimp
80020670:	0000                	c.unimp
80020672:	0000                	c.unimp
80020674:	0000                	c.unimp
80020676:	0000                	c.unimp
80020678:	0000                	c.unimp
8002067a:	0000                	c.unimp
8002067c:	0000                	c.unimp
8002067e:	0000                	c.unimp
80020680:	0000                	c.unimp
80020682:	0000                	c.unimp
80020684:	0000                	c.unimp
80020686:	0000                	c.unimp
80020688:	0000                	c.unimp
8002068a:	0000                	c.unimp
8002068c:	0000                	c.unimp
8002068e:	0000                	c.unimp
80020690:	0000                	c.unimp
80020692:	0000                	c.unimp
80020694:	0000                	c.unimp
80020696:	0000                	c.unimp
80020698:	0000                	c.unimp
8002069a:	0000                	c.unimp
8002069c:	0000                	c.unimp
8002069e:	0000                	c.unimp
800206a0:	0000                	c.unimp
800206a2:	0000                	c.unimp
800206a4:	0000                	c.unimp
800206a6:	0000                	c.unimp
800206a8:	0000                	c.unimp
800206aa:	0000                	c.unimp
800206ac:	0000                	c.unimp
800206ae:	0000                	c.unimp
800206b0:	0000                	c.unimp
800206b2:	0000                	c.unimp
800206b4:	0000                	c.unimp
800206b6:	0000                	c.unimp
800206b8:	0000                	c.unimp
800206ba:	0000                	c.unimp
800206bc:	0000                	c.unimp
800206be:	0000                	c.unimp
800206c0:	0000                	c.unimp
800206c2:	0000                	c.unimp
800206c4:	0000                	c.unimp
800206c6:	0000                	c.unimp
800206c8:	0000                	c.unimp
800206ca:	0000                	c.unimp
800206cc:	0000                	c.unimp
800206ce:	0000                	c.unimp
800206d0:	0000                	c.unimp
800206d2:	0000                	c.unimp
800206d4:	0000                	c.unimp
800206d6:	0000                	c.unimp
800206d8:	0000                	c.unimp
800206da:	0000                	c.unimp
800206dc:	0000                	c.unimp
800206de:	0000                	c.unimp
800206e0:	0000                	c.unimp
800206e2:	0000                	c.unimp
800206e4:	0000                	c.unimp
800206e6:	0000                	c.unimp
800206e8:	0000                	c.unimp
800206ea:	0000                	c.unimp
800206ec:	0000                	c.unimp
800206ee:	0000                	c.unimp
800206f0:	0000                	c.unimp
800206f2:	0000                	c.unimp
800206f4:	0000                	c.unimp
800206f6:	0000                	c.unimp
800206f8:	0000                	c.unimp
800206fa:	0000                	c.unimp
800206fc:	0000                	c.unimp
800206fe:	0000                	c.unimp
80020700:	0000                	c.unimp
80020702:	0000                	c.unimp
80020704:	0000                	c.unimp
80020706:	0000                	c.unimp
80020708:	0000                	c.unimp
8002070a:	0000                	c.unimp
8002070c:	0000                	c.unimp
8002070e:	0000                	c.unimp
80020710:	0000                	c.unimp
80020712:	0000                	c.unimp
80020714:	0000                	c.unimp
80020716:	0000                	c.unimp
80020718:	0000                	c.unimp
8002071a:	0000                	c.unimp
8002071c:	0000                	c.unimp
8002071e:	0000                	c.unimp
80020720:	0000                	c.unimp
80020722:	0000                	c.unimp
80020724:	0000                	c.unimp
80020726:	0000                	c.unimp
80020728:	0000                	c.unimp
8002072a:	0000                	c.unimp
8002072c:	0000                	c.unimp
8002072e:	0000                	c.unimp
80020730:	0000                	c.unimp
80020732:	0000                	c.unimp
80020734:	0000                	c.unimp
80020736:	0000                	c.unimp
80020738:	0000                	c.unimp
8002073a:	0000                	c.unimp
8002073c:	0000                	c.unimp
8002073e:	0000                	c.unimp
80020740:	0000                	c.unimp
80020742:	0000                	c.unimp
80020744:	0000                	c.unimp
80020746:	0000                	c.unimp
80020748:	0000                	c.unimp
8002074a:	0000                	c.unimp
8002074c:	0000                	c.unimp
8002074e:	0000                	c.unimp
80020750:	0000                	c.unimp
80020752:	0000                	c.unimp
80020754:	0000                	c.unimp
80020756:	0000                	c.unimp
80020758:	0000                	c.unimp
8002075a:	0000                	c.unimp
8002075c:	0000                	c.unimp
8002075e:	0000                	c.unimp
80020760:	0000                	c.unimp
80020762:	0000                	c.unimp
80020764:	0000                	c.unimp
80020766:	0000                	c.unimp
80020768:	0000                	c.unimp
8002076a:	0000                	c.unimp
8002076c:	0000                	c.unimp
8002076e:	0000                	c.unimp
80020770:	0000                	c.unimp
80020772:	0000                	c.unimp
80020774:	0000                	c.unimp
80020776:	0000                	c.unimp
80020778:	0000                	c.unimp
8002077a:	0000                	c.unimp
8002077c:	0000                	c.unimp
8002077e:	0000                	c.unimp
80020780:	0000                	c.unimp
80020782:	0000                	c.unimp
80020784:	0000                	c.unimp
80020786:	0000                	c.unimp
80020788:	0000                	c.unimp
8002078a:	0000                	c.unimp
8002078c:	0000                	c.unimp
8002078e:	0000                	c.unimp
80020790:	0000                	c.unimp
80020792:	0000                	c.unimp
80020794:	0000                	c.unimp
80020796:	0000                	c.unimp
80020798:	0000                	c.unimp
8002079a:	0000                	c.unimp
8002079c:	0000                	c.unimp
8002079e:	0000                	c.unimp
800207a0:	0000                	c.unimp
800207a2:	0000                	c.unimp
800207a4:	0000                	c.unimp
800207a6:	0000                	c.unimp
800207a8:	0000                	c.unimp
800207aa:	0000                	c.unimp
800207ac:	0000                	c.unimp
800207ae:	0000                	c.unimp
800207b0:	0000                	c.unimp
800207b2:	0000                	c.unimp
800207b4:	0000                	c.unimp
800207b6:	0000                	c.unimp
800207b8:	0000                	c.unimp
800207ba:	0000                	c.unimp
800207bc:	0000                	c.unimp
800207be:	0000                	c.unimp
800207c0:	0000                	c.unimp
800207c2:	0000                	c.unimp
800207c4:	0000                	c.unimp
800207c6:	0000                	c.unimp
800207c8:	0000                	c.unimp
800207ca:	0000                	c.unimp
800207cc:	0000                	c.unimp
800207ce:	0000                	c.unimp
800207d0:	0000                	c.unimp
800207d2:	0000                	c.unimp
800207d4:	0000                	c.unimp
800207d6:	0000                	c.unimp
800207d8:	0000                	c.unimp
800207da:	0000                	c.unimp
800207dc:	0000                	c.unimp
800207de:	0000                	c.unimp
800207e0:	0000                	c.unimp
800207e2:	0000                	c.unimp
800207e4:	0000                	c.unimp
800207e6:	0000                	c.unimp
800207e8:	0000                	c.unimp
800207ea:	0000                	c.unimp
800207ec:	0000                	c.unimp
800207ee:	0000                	c.unimp
800207f0:	0000                	c.unimp
800207f2:	0000                	c.unimp
800207f4:	0000                	c.unimp
800207f6:	0000                	c.unimp
800207f8:	0000                	c.unimp
800207fa:	0000                	c.unimp
800207fc:	0000                	c.unimp
800207fe:	0000                	c.unimp
80020800:	0000                	c.unimp
80020802:	0000                	c.unimp
80020804:	0000                	c.unimp
80020806:	0000                	c.unimp
80020808:	0000                	c.unimp
8002080a:	0000                	c.unimp
8002080c:	0000                	c.unimp
8002080e:	0000                	c.unimp
80020810:	0000                	c.unimp
80020812:	0000                	c.unimp
80020814:	0000                	c.unimp
80020816:	0000                	c.unimp
80020818:	0000                	c.unimp
8002081a:	0000                	c.unimp
8002081c:	0000                	c.unimp
8002081e:	0000                	c.unimp
80020820:	0000                	c.unimp
80020822:	0000                	c.unimp
80020824:	0000                	c.unimp
80020826:	0000                	c.unimp
80020828:	0000                	c.unimp
8002082a:	0000                	c.unimp
8002082c:	0000                	c.unimp
8002082e:	0000                	c.unimp
80020830:	0000                	c.unimp
80020832:	0000                	c.unimp
80020834:	0000                	c.unimp
80020836:	0000                	c.unimp
80020838:	0000                	c.unimp
8002083a:	0000                	c.unimp
8002083c:	0000                	c.unimp
8002083e:	0000                	c.unimp
80020840:	0000                	c.unimp
80020842:	0000                	c.unimp
80020844:	0000                	c.unimp
80020846:	0000                	c.unimp
80020848:	0000                	c.unimp
8002084a:	0000                	c.unimp
8002084c:	0000                	c.unimp
8002084e:	0000                	c.unimp
80020850:	0000                	c.unimp
80020852:	0000                	c.unimp
80020854:	0000                	c.unimp
80020856:	0000                	c.unimp
80020858:	0000                	c.unimp
8002085a:	0000                	c.unimp
8002085c:	0000                	c.unimp
8002085e:	0000                	c.unimp
80020860:	0000                	c.unimp
80020862:	0000                	c.unimp
80020864:	0000                	c.unimp
80020866:	0000                	c.unimp
80020868:	0000                	c.unimp
8002086a:	0000                	c.unimp
8002086c:	0000                	c.unimp
8002086e:	0000                	c.unimp
80020870:	0000                	c.unimp
80020872:	0000                	c.unimp
80020874:	0000                	c.unimp
80020876:	0000                	c.unimp
80020878:	0000                	c.unimp
8002087a:	0000                	c.unimp
8002087c:	0000                	c.unimp
8002087e:	0000                	c.unimp
80020880:	0000                	c.unimp
80020882:	0000                	c.unimp
80020884:	0000                	c.unimp
80020886:	0000                	c.unimp
80020888:	0000                	c.unimp
8002088a:	0000                	c.unimp
8002088c:	0000                	c.unimp
8002088e:	0000                	c.unimp
80020890:	0000                	c.unimp
80020892:	0000                	c.unimp
80020894:	0000                	c.unimp
80020896:	0000                	c.unimp
80020898:	0000                	c.unimp
8002089a:	0000                	c.unimp
8002089c:	0000                	c.unimp
8002089e:	0000                	c.unimp
800208a0:	0000                	c.unimp
800208a2:	0000                	c.unimp
800208a4:	0000                	c.unimp
800208a6:	0000                	c.unimp
800208a8:	0000                	c.unimp
800208aa:	0000                	c.unimp
800208ac:	0000                	c.unimp
800208ae:	0000                	c.unimp
800208b0:	0000                	c.unimp
800208b2:	0000                	c.unimp
800208b4:	0000                	c.unimp
800208b6:	0000                	c.unimp
800208b8:	0000                	c.unimp
800208ba:	0000                	c.unimp
800208bc:	0000                	c.unimp
800208be:	0000                	c.unimp
800208c0:	0000                	c.unimp
800208c2:	0000                	c.unimp
800208c4:	0000                	c.unimp
800208c6:	0000                	c.unimp
800208c8:	0000                	c.unimp
800208ca:	0000                	c.unimp
800208cc:	0000                	c.unimp
800208ce:	0000                	c.unimp
800208d0:	0000                	c.unimp
800208d2:	0000                	c.unimp
800208d4:	0000                	c.unimp
800208d6:	0000                	c.unimp
800208d8:	0000                	c.unimp
800208da:	0000                	c.unimp
800208dc:	0000                	c.unimp
800208de:	0000                	c.unimp
800208e0:	0000                	c.unimp
800208e2:	0000                	c.unimp
800208e4:	0000                	c.unimp
800208e6:	0000                	c.unimp
800208e8:	0000                	c.unimp
800208ea:	0000                	c.unimp
800208ec:	0000                	c.unimp
800208ee:	0000                	c.unimp
800208f0:	0000                	c.unimp
800208f2:	0000                	c.unimp
800208f4:	0000                	c.unimp
800208f6:	0000                	c.unimp
800208f8:	0000                	c.unimp
800208fa:	0000                	c.unimp
800208fc:	0000                	c.unimp
800208fe:	0000                	c.unimp
80020900:	0000                	c.unimp
80020902:	0000                	c.unimp
80020904:	0000                	c.unimp
80020906:	0000                	c.unimp
80020908:	0000                	c.unimp
8002090a:	0000                	c.unimp
8002090c:	0000                	c.unimp
8002090e:	0000                	c.unimp
80020910:	0000                	c.unimp
80020912:	0000                	c.unimp
80020914:	0000                	c.unimp
80020916:	0000                	c.unimp
80020918:	0000                	c.unimp
8002091a:	0000                	c.unimp
8002091c:	0000                	c.unimp
8002091e:	0000                	c.unimp
80020920:	0000                	c.unimp
80020922:	0000                	c.unimp
80020924:	0000                	c.unimp
80020926:	0000                	c.unimp
80020928:	0000                	c.unimp
8002092a:	0000                	c.unimp
8002092c:	0000                	c.unimp
8002092e:	0000                	c.unimp
80020930:	0000                	c.unimp
80020932:	0000                	c.unimp
80020934:	0000                	c.unimp
80020936:	0000                	c.unimp
80020938:	0000                	c.unimp
8002093a:	0000                	c.unimp
8002093c:	0000                	c.unimp
8002093e:	0000                	c.unimp
80020940:	0000                	c.unimp
80020942:	0000                	c.unimp
80020944:	0000                	c.unimp
80020946:	0000                	c.unimp
80020948:	0000                	c.unimp
8002094a:	0000                	c.unimp
8002094c:	0000                	c.unimp
8002094e:	0000                	c.unimp
80020950:	0000                	c.unimp
80020952:	0000                	c.unimp
80020954:	0000                	c.unimp
80020956:	0000                	c.unimp
80020958:	0000                	c.unimp
8002095a:	0000                	c.unimp
8002095c:	0000                	c.unimp
8002095e:	0000                	c.unimp
80020960:	0000                	c.unimp
80020962:	0000                	c.unimp
80020964:	0000                	c.unimp
80020966:	0000                	c.unimp
80020968:	0000                	c.unimp
8002096a:	0000                	c.unimp
8002096c:	0000                	c.unimp
8002096e:	0000                	c.unimp
80020970:	0000                	c.unimp
80020972:	0000                	c.unimp
80020974:	0000                	c.unimp
80020976:	0000                	c.unimp
80020978:	0000                	c.unimp
8002097a:	0000                	c.unimp
8002097c:	0000                	c.unimp
8002097e:	0000                	c.unimp
80020980:	0000                	c.unimp
80020982:	0000                	c.unimp
80020984:	0000                	c.unimp
80020986:	0000                	c.unimp
80020988:	0000                	c.unimp
8002098a:	0000                	c.unimp
8002098c:	0000                	c.unimp
8002098e:	0000                	c.unimp
80020990:	0000                	c.unimp
80020992:	0000                	c.unimp
80020994:	0000                	c.unimp
80020996:	0000                	c.unimp
80020998:	0000                	c.unimp
8002099a:	0000                	c.unimp
8002099c:	0000                	c.unimp
8002099e:	0000                	c.unimp
800209a0:	0000                	c.unimp
800209a2:	0000                	c.unimp
800209a4:	0000                	c.unimp
800209a6:	0000                	c.unimp
800209a8:	0000                	c.unimp
800209aa:	0000                	c.unimp
800209ac:	0000                	c.unimp
800209ae:	0000                	c.unimp
800209b0:	0000                	c.unimp
800209b2:	0000                	c.unimp
800209b4:	0000                	c.unimp
800209b6:	0000                	c.unimp
800209b8:	0000                	c.unimp
800209ba:	0000                	c.unimp
800209bc:	0000                	c.unimp
800209be:	0000                	c.unimp
800209c0:	0000                	c.unimp
800209c2:	0000                	c.unimp
800209c4:	0000                	c.unimp
800209c6:	0000                	c.unimp
800209c8:	0000                	c.unimp
800209ca:	0000                	c.unimp
800209cc:	0000                	c.unimp
800209ce:	0000                	c.unimp
800209d0:	0000                	c.unimp
800209d2:	0000                	c.unimp
800209d4:	0000                	c.unimp
800209d6:	0000                	c.unimp
800209d8:	0000                	c.unimp
800209da:	0000                	c.unimp
800209dc:	0000                	c.unimp
800209de:	0000                	c.unimp
800209e0:	0000                	c.unimp
800209e2:	0000                	c.unimp
800209e4:	0000                	c.unimp
800209e6:	0000                	c.unimp
800209e8:	0000                	c.unimp
800209ea:	0000                	c.unimp
800209ec:	0000                	c.unimp
800209ee:	0000                	c.unimp
800209f0:	0000                	c.unimp
800209f2:	0000                	c.unimp
800209f4:	0000                	c.unimp
800209f6:	0000                	c.unimp
800209f8:	0000                	c.unimp
800209fa:	0000                	c.unimp
800209fc:	0000                	c.unimp
800209fe:	0000                	c.unimp
80020a00:	0000                	c.unimp
80020a02:	0000                	c.unimp
80020a04:	0000                	c.unimp
80020a06:	0000                	c.unimp
80020a08:	0000                	c.unimp
80020a0a:	0000                	c.unimp
80020a0c:	0000                	c.unimp
80020a0e:	0000                	c.unimp
80020a10:	0000                	c.unimp
80020a12:	0000                	c.unimp
80020a14:	0000                	c.unimp
80020a16:	0000                	c.unimp
80020a18:	0000                	c.unimp
80020a1a:	0000                	c.unimp
80020a1c:	0000                	c.unimp
80020a1e:	0000                	c.unimp
80020a20:	0000                	c.unimp
80020a22:	0000                	c.unimp
80020a24:	0000                	c.unimp
80020a26:	0000                	c.unimp
80020a28:	0000                	c.unimp
80020a2a:	0000                	c.unimp
80020a2c:	0000                	c.unimp
80020a2e:	0000                	c.unimp
80020a30:	0000                	c.unimp
80020a32:	0000                	c.unimp
80020a34:	0000                	c.unimp
80020a36:	0000                	c.unimp
80020a38:	0000                	c.unimp
80020a3a:	0000                	c.unimp
80020a3c:	0000                	c.unimp
80020a3e:	0000                	c.unimp
80020a40:	0000                	c.unimp
80020a42:	0000                	c.unimp
80020a44:	0000                	c.unimp
80020a46:	0000                	c.unimp
80020a48:	0000                	c.unimp
80020a4a:	0000                	c.unimp
80020a4c:	0000                	c.unimp
80020a4e:	0000                	c.unimp
80020a50:	0000                	c.unimp
80020a52:	0000                	c.unimp
80020a54:	0000                	c.unimp
80020a56:	0000                	c.unimp
80020a58:	0000                	c.unimp
80020a5a:	0000                	c.unimp
80020a5c:	0000                	c.unimp
80020a5e:	0000                	c.unimp
80020a60:	0000                	c.unimp
80020a62:	0000                	c.unimp

Disassembly of section .stack:

80020000 <__freertos_irq_stack_top-0x2000>:
80020000:	0000                	c.unimp
80020002:	0000                	c.unimp
80020004:	0000                	c.unimp
80020006:	0000                	c.unimp
80020008:	0000                	c.unimp
8002000a:	0000                	c.unimp
8002000c:	0000                	c.unimp
8002000e:	0000                	c.unimp
80020010:	0000                	c.unimp
80020012:	0000                	c.unimp
80020014:	0000                	c.unimp
80020016:	0000                	c.unimp
80020018:	0000                	c.unimp
8002001a:	0000                	c.unimp
8002001c:	0000                	c.unimp
8002001e:	0000                	c.unimp
80020020:	0000                	c.unimp
80020022:	0000                	c.unimp
80020024:	0000                	c.unimp
80020026:	0000                	c.unimp
80020028:	0000                	c.unimp
8002002a:	0000                	c.unimp
8002002c:	0000                	c.unimp
8002002e:	0000                	c.unimp
80020030:	0000                	c.unimp
80020032:	0000                	c.unimp
80020034:	0000                	c.unimp
80020036:	0000                	c.unimp
80020038:	0000                	c.unimp
8002003a:	0000                	c.unimp
8002003c:	0000                	c.unimp
8002003e:	0000                	c.unimp
80020040:	0000                	c.unimp
80020042:	0000                	c.unimp
80020044:	0000                	c.unimp
80020046:	0000                	c.unimp
80020048:	0000                	c.unimp
8002004a:	0000                	c.unimp
8002004c:	0000                	c.unimp
8002004e:	0000                	c.unimp
80020050:	0000                	c.unimp
80020052:	0000                	c.unimp
80020054:	0000                	c.unimp
80020056:	0000                	c.unimp
80020058:	0000                	c.unimp
8002005a:	0000                	c.unimp
8002005c:	0000                	c.unimp
8002005e:	0000                	c.unimp
80020060:	0000                	c.unimp
80020062:	0000                	c.unimp
80020064:	0000                	c.unimp
80020066:	0000                	c.unimp
80020068:	0000                	c.unimp
8002006a:	0000                	c.unimp
8002006c:	0000                	c.unimp
8002006e:	0000                	c.unimp
80020070:	0000                	c.unimp
80020072:	0000                	c.unimp
80020074:	0000                	c.unimp
80020076:	0000                	c.unimp
80020078:	0000                	c.unimp
8002007a:	0000                	c.unimp
8002007c:	0000                	c.unimp
8002007e:	0000                	c.unimp
80020080:	0000                	c.unimp
80020082:	0000                	c.unimp
80020084:	0000                	c.unimp
80020086:	0000                	c.unimp
80020088:	0000                	c.unimp
8002008a:	0000                	c.unimp
8002008c:	0000                	c.unimp
8002008e:	0000                	c.unimp
80020090:	0000                	c.unimp
80020092:	0000                	c.unimp
80020094:	0000                	c.unimp
80020096:	0000                	c.unimp
80020098:	0000                	c.unimp
8002009a:	0000                	c.unimp
8002009c:	0000                	c.unimp
8002009e:	0000                	c.unimp
800200a0:	0000                	c.unimp
800200a2:	0000                	c.unimp
800200a4:	0000                	c.unimp
800200a6:	0000                	c.unimp
800200a8:	0000                	c.unimp
800200aa:	0000                	c.unimp
800200ac:	0000                	c.unimp
800200ae:	0000                	c.unimp
800200b0:	0000                	c.unimp
800200b2:	0000                	c.unimp
800200b4:	0000                	c.unimp
800200b6:	0000                	c.unimp
800200b8:	0000                	c.unimp
800200ba:	0000                	c.unimp
800200bc:	0000                	c.unimp
800200be:	0000                	c.unimp
800200c0:	0000                	c.unimp
800200c2:	0000                	c.unimp
800200c4:	0000                	c.unimp
800200c6:	0000                	c.unimp
800200c8:	0000                	c.unimp
800200ca:	0000                	c.unimp
800200cc:	0000                	c.unimp
800200ce:	0000                	c.unimp
800200d0:	0000                	c.unimp
800200d2:	0000                	c.unimp
800200d4:	0000                	c.unimp
800200d6:	0000                	c.unimp
800200d8:	0000                	c.unimp
800200da:	0000                	c.unimp
800200dc:	0000                	c.unimp
800200de:	0000                	c.unimp
800200e0:	0000                	c.unimp
800200e2:	0000                	c.unimp
800200e4:	0000                	c.unimp
800200e6:	0000                	c.unimp
800200e8:	0000                	c.unimp
800200ea:	0000                	c.unimp
800200ec:	0000                	c.unimp
800200ee:	0000                	c.unimp
800200f0:	0000                	c.unimp
800200f2:	0000                	c.unimp
800200f4:	0000                	c.unimp
800200f6:	0000                	c.unimp
800200f8:	0000                	c.unimp
800200fa:	0000                	c.unimp
800200fc:	0000                	c.unimp
800200fe:	0000                	c.unimp
80020100:	0000                	c.unimp
80020102:	0000                	c.unimp
80020104:	0000                	c.unimp
80020106:	0000                	c.unimp
80020108:	0000                	c.unimp
8002010a:	0000                	c.unimp
8002010c:	0000                	c.unimp
8002010e:	0000                	c.unimp
80020110:	0000                	c.unimp
80020112:	0000                	c.unimp
80020114:	0000                	c.unimp
80020116:	0000                	c.unimp
80020118:	0000                	c.unimp
8002011a:	0000                	c.unimp
8002011c:	0000                	c.unimp
8002011e:	0000                	c.unimp
80020120:	0000                	c.unimp
80020122:	0000                	c.unimp
80020124:	0000                	c.unimp
80020126:	0000                	c.unimp
80020128:	0000                	c.unimp
8002012a:	0000                	c.unimp
8002012c:	0000                	c.unimp
8002012e:	0000                	c.unimp
80020130:	0000                	c.unimp
80020132:	0000                	c.unimp
80020134:	0000                	c.unimp
80020136:	0000                	c.unimp
80020138:	0000                	c.unimp
8002013a:	0000                	c.unimp
8002013c:	0000                	c.unimp
8002013e:	0000                	c.unimp
80020140:	0000                	c.unimp
80020142:	0000                	c.unimp
80020144:	0000                	c.unimp
80020146:	0000                	c.unimp
80020148:	0000                	c.unimp
8002014a:	0000                	c.unimp
8002014c:	0000                	c.unimp
8002014e:	0000                	c.unimp
80020150:	0000                	c.unimp
80020152:	0000                	c.unimp
80020154:	0000                	c.unimp
80020156:	0000                	c.unimp
80020158:	0000                	c.unimp
8002015a:	0000                	c.unimp
8002015c:	0000                	c.unimp
8002015e:	0000                	c.unimp
80020160:	0000                	c.unimp
80020162:	0000                	c.unimp
80020164:	0000                	c.unimp
80020166:	0000                	c.unimp
80020168:	0000                	c.unimp
8002016a:	0000                	c.unimp
8002016c:	0000                	c.unimp
8002016e:	0000                	c.unimp
80020170:	0000                	c.unimp
80020172:	0000                	c.unimp
80020174:	0000                	c.unimp
80020176:	0000                	c.unimp
80020178:	0000                	c.unimp
8002017a:	0000                	c.unimp
8002017c:	0000                	c.unimp
8002017e:	0000                	c.unimp
80020180:	0000                	c.unimp
80020182:	0000                	c.unimp
80020184:	0000                	c.unimp
80020186:	0000                	c.unimp
80020188:	0000                	c.unimp
8002018a:	0000                	c.unimp
8002018c:	0000                	c.unimp
8002018e:	0000                	c.unimp
80020190:	0000                	c.unimp
80020192:	0000                	c.unimp
80020194:	0000                	c.unimp
80020196:	0000                	c.unimp
80020198:	0000                	c.unimp
8002019a:	0000                	c.unimp
8002019c:	0000                	c.unimp
8002019e:	0000                	c.unimp
800201a0:	0000                	c.unimp
800201a2:	0000                	c.unimp
800201a4:	0000                	c.unimp
800201a6:	0000                	c.unimp
800201a8:	0000                	c.unimp
800201aa:	0000                	c.unimp
800201ac:	0000                	c.unimp
800201ae:	0000                	c.unimp
800201b0:	0000                	c.unimp
800201b2:	0000                	c.unimp
800201b4:	0000                	c.unimp
800201b6:	0000                	c.unimp
800201b8:	0000                	c.unimp
800201ba:	0000                	c.unimp
800201bc:	0000                	c.unimp
800201be:	0000                	c.unimp
800201c0:	0000                	c.unimp
800201c2:	0000                	c.unimp
800201c4:	0000                	c.unimp
800201c6:	0000                	c.unimp
800201c8:	0000                	c.unimp
800201ca:	0000                	c.unimp
800201cc:	0000                	c.unimp
800201ce:	0000                	c.unimp
800201d0:	0000                	c.unimp
800201d2:	0000                	c.unimp
800201d4:	0000                	c.unimp
800201d6:	0000                	c.unimp
800201d8:	0000                	c.unimp
800201da:	0000                	c.unimp
800201dc:	0000                	c.unimp
800201de:	0000                	c.unimp
800201e0:	0000                	c.unimp
800201e2:	0000                	c.unimp
800201e4:	0000                	c.unimp
800201e6:	0000                	c.unimp
800201e8:	0000                	c.unimp
800201ea:	0000                	c.unimp
800201ec:	0000                	c.unimp
800201ee:	0000                	c.unimp
800201f0:	0000                	c.unimp
800201f2:	0000                	c.unimp
800201f4:	0000                	c.unimp
800201f6:	0000                	c.unimp
800201f8:	0000                	c.unimp
800201fa:	0000                	c.unimp
800201fc:	0000                	c.unimp
800201fe:	0000                	c.unimp
80020200:	0000                	c.unimp
80020202:	0000                	c.unimp
80020204:	0000                	c.unimp
80020206:	0000                	c.unimp
80020208:	0000                	c.unimp
8002020a:	0000                	c.unimp
8002020c:	0000                	c.unimp
8002020e:	0000                	c.unimp
80020210:	0000                	c.unimp
80020212:	0000                	c.unimp
80020214:	0000                	c.unimp
80020216:	0000                	c.unimp
80020218:	0000                	c.unimp
8002021a:	0000                	c.unimp
8002021c:	0000                	c.unimp
8002021e:	0000                	c.unimp
80020220:	0000                	c.unimp
80020222:	0000                	c.unimp
80020224:	0000                	c.unimp
80020226:	0000                	c.unimp
80020228:	0000                	c.unimp
8002022a:	0000                	c.unimp
8002022c:	0000                	c.unimp
8002022e:	0000                	c.unimp
80020230:	0000                	c.unimp
80020232:	0000                	c.unimp
80020234:	0000                	c.unimp
80020236:	0000                	c.unimp
80020238:	0000                	c.unimp
8002023a:	0000                	c.unimp
8002023c:	0000                	c.unimp
8002023e:	0000                	c.unimp
80020240:	0000                	c.unimp
80020242:	0000                	c.unimp
80020244:	0000                	c.unimp
80020246:	0000                	c.unimp
80020248:	0000                	c.unimp
8002024a:	0000                	c.unimp
8002024c:	0000                	c.unimp
8002024e:	0000                	c.unimp
80020250:	0000                	c.unimp
80020252:	0000                	c.unimp
80020254:	0000                	c.unimp
80020256:	0000                	c.unimp
80020258:	0000                	c.unimp
8002025a:	0000                	c.unimp
8002025c:	0000                	c.unimp
8002025e:	0000                	c.unimp
80020260:	0000                	c.unimp
80020262:	0000                	c.unimp
80020264:	0000                	c.unimp
80020266:	0000                	c.unimp
80020268:	0000                	c.unimp
8002026a:	0000                	c.unimp
8002026c:	0000                	c.unimp
8002026e:	0000                	c.unimp
80020270:	0000                	c.unimp
80020272:	0000                	c.unimp
80020274:	0000                	c.unimp
80020276:	0000                	c.unimp
80020278:	0000                	c.unimp
8002027a:	0000                	c.unimp
8002027c:	0000                	c.unimp
8002027e:	0000                	c.unimp
80020280:	0000                	c.unimp
80020282:	0000                	c.unimp
80020284:	0000                	c.unimp
80020286:	0000                	c.unimp
80020288:	0000                	c.unimp
8002028a:	0000                	c.unimp
8002028c:	0000                	c.unimp
8002028e:	0000                	c.unimp
80020290:	0000                	c.unimp
80020292:	0000                	c.unimp
80020294:	0000                	c.unimp
80020296:	0000                	c.unimp
80020298:	0000                	c.unimp
8002029a:	0000                	c.unimp
8002029c:	0000                	c.unimp
8002029e:	0000                	c.unimp
800202a0:	0000                	c.unimp
800202a2:	0000                	c.unimp
800202a4:	0000                	c.unimp
800202a6:	0000                	c.unimp
800202a8:	0000                	c.unimp
800202aa:	0000                	c.unimp
800202ac:	0000                	c.unimp
800202ae:	0000                	c.unimp
800202b0:	0000                	c.unimp
800202b2:	0000                	c.unimp
800202b4:	0000                	c.unimp
800202b6:	0000                	c.unimp
800202b8:	0000                	c.unimp
800202ba:	0000                	c.unimp
800202bc:	0000                	c.unimp
800202be:	0000                	c.unimp
800202c0:	0000                	c.unimp
800202c2:	0000                	c.unimp
800202c4:	0000                	c.unimp
800202c6:	0000                	c.unimp
800202c8:	0000                	c.unimp
800202ca:	0000                	c.unimp
800202cc:	0000                	c.unimp
800202ce:	0000                	c.unimp
800202d0:	0000                	c.unimp
800202d2:	0000                	c.unimp
800202d4:	0000                	c.unimp
800202d6:	0000                	c.unimp
800202d8:	0000                	c.unimp
800202da:	0000                	c.unimp
800202dc:	0000                	c.unimp
800202de:	0000                	c.unimp
800202e0:	0000                	c.unimp
800202e2:	0000                	c.unimp
800202e4:	0000                	c.unimp
800202e6:	0000                	c.unimp
800202e8:	0000                	c.unimp
800202ea:	0000                	c.unimp
800202ec:	0000                	c.unimp
800202ee:	0000                	c.unimp
800202f0:	0000                	c.unimp
800202f2:	0000                	c.unimp
800202f4:	0000                	c.unimp
800202f6:	0000                	c.unimp
800202f8:	0000                	c.unimp
800202fa:	0000                	c.unimp
800202fc:	0000                	c.unimp
800202fe:	0000                	c.unimp
80020300:	0000                	c.unimp
80020302:	0000                	c.unimp
80020304:	0000                	c.unimp
80020306:	0000                	c.unimp
80020308:	0000                	c.unimp
8002030a:	0000                	c.unimp
8002030c:	0000                	c.unimp
8002030e:	0000                	c.unimp
80020310:	0000                	c.unimp
80020312:	0000                	c.unimp
80020314:	0000                	c.unimp
80020316:	0000                	c.unimp
80020318:	0000                	c.unimp
8002031a:	0000                	c.unimp
8002031c:	0000                	c.unimp
8002031e:	0000                	c.unimp
80020320:	0000                	c.unimp
80020322:	0000                	c.unimp
80020324:	0000                	c.unimp
80020326:	0000                	c.unimp
80020328:	0000                	c.unimp
8002032a:	0000                	c.unimp
8002032c:	0000                	c.unimp
8002032e:	0000                	c.unimp
80020330:	0000                	c.unimp
80020332:	0000                	c.unimp
80020334:	0000                	c.unimp
80020336:	0000                	c.unimp
80020338:	0000                	c.unimp
8002033a:	0000                	c.unimp
8002033c:	0000                	c.unimp
8002033e:	0000                	c.unimp
80020340:	0000                	c.unimp
80020342:	0000                	c.unimp
80020344:	0000                	c.unimp
80020346:	0000                	c.unimp
80020348:	0000                	c.unimp
8002034a:	0000                	c.unimp
8002034c:	0000                	c.unimp
8002034e:	0000                	c.unimp
80020350:	0000                	c.unimp
80020352:	0000                	c.unimp
80020354:	0000                	c.unimp
80020356:	0000                	c.unimp
80020358:	0000                	c.unimp
8002035a:	0000                	c.unimp
8002035c:	0000                	c.unimp
8002035e:	0000                	c.unimp
80020360:	0000                	c.unimp
80020362:	0000                	c.unimp
80020364:	0000                	c.unimp
80020366:	0000                	c.unimp
80020368:	0000                	c.unimp
8002036a:	0000                	c.unimp
8002036c:	0000                	c.unimp
8002036e:	0000                	c.unimp
80020370:	0000                	c.unimp
80020372:	0000                	c.unimp
80020374:	0000                	c.unimp
80020376:	0000                	c.unimp
80020378:	0000                	c.unimp
8002037a:	0000                	c.unimp
8002037c:	0000                	c.unimp
8002037e:	0000                	c.unimp
80020380:	0000                	c.unimp
80020382:	0000                	c.unimp
80020384:	0000                	c.unimp
80020386:	0000                	c.unimp
80020388:	0000                	c.unimp
8002038a:	0000                	c.unimp
8002038c:	0000                	c.unimp
8002038e:	0000                	c.unimp
80020390:	0000                	c.unimp
80020392:	0000                	c.unimp
80020394:	0000                	c.unimp
80020396:	0000                	c.unimp
80020398:	0000                	c.unimp
8002039a:	0000                	c.unimp
8002039c:	0000                	c.unimp
8002039e:	0000                	c.unimp
800203a0:	0000                	c.unimp
800203a2:	0000                	c.unimp
800203a4:	0000                	c.unimp
800203a6:	0000                	c.unimp
800203a8:	0000                	c.unimp
800203aa:	0000                	c.unimp
800203ac:	0000                	c.unimp
800203ae:	0000                	c.unimp
800203b0:	0000                	c.unimp
800203b2:	0000                	c.unimp
800203b4:	0000                	c.unimp
800203b6:	0000                	c.unimp
800203b8:	0000                	c.unimp
800203ba:	0000                	c.unimp
800203bc:	0000                	c.unimp
800203be:	0000                	c.unimp
800203c0:	0000                	c.unimp
800203c2:	0000                	c.unimp
800203c4:	0000                	c.unimp
800203c6:	0000                	c.unimp
800203c8:	0000                	c.unimp
800203ca:	0000                	c.unimp
800203cc:	0000                	c.unimp
800203ce:	0000                	c.unimp
800203d0:	0000                	c.unimp
800203d2:	0000                	c.unimp
800203d4:	0000                	c.unimp
800203d6:	0000                	c.unimp
800203d8:	0000                	c.unimp
800203da:	0000                	c.unimp
800203dc:	0000                	c.unimp
800203de:	0000                	c.unimp
800203e0:	0000                	c.unimp
800203e2:	0000                	c.unimp
800203e4:	0000                	c.unimp
800203e6:	0000                	c.unimp
800203e8:	0000                	c.unimp
800203ea:	0000                	c.unimp
800203ec:	0000                	c.unimp
800203ee:	0000                	c.unimp
800203f0:	0000                	c.unimp
800203f2:	0000                	c.unimp
800203f4:	0000                	c.unimp
800203f6:	0000                	c.unimp
800203f8:	0000                	c.unimp
800203fa:	0000                	c.unimp
800203fc:	0000                	c.unimp
800203fe:	0000                	c.unimp
80020400:	0000                	c.unimp
80020402:	0000                	c.unimp
80020404:	0000                	c.unimp
80020406:	0000                	c.unimp
80020408:	0000                	c.unimp
8002040a:	0000                	c.unimp
8002040c:	0000                	c.unimp
8002040e:	0000                	c.unimp
80020410:	0000                	c.unimp
80020412:	0000                	c.unimp
80020414:	0000                	c.unimp
80020416:	0000                	c.unimp
80020418:	0000                	c.unimp
8002041a:	0000                	c.unimp
8002041c:	0000                	c.unimp
8002041e:	0000                	c.unimp
80020420:	0000                	c.unimp
80020422:	0000                	c.unimp
80020424:	0000                	c.unimp
80020426:	0000                	c.unimp
80020428:	0000                	c.unimp
8002042a:	0000                	c.unimp
8002042c:	0000                	c.unimp
8002042e:	0000                	c.unimp
80020430:	0000                	c.unimp
80020432:	0000                	c.unimp
80020434:	0000                	c.unimp
80020436:	0000                	c.unimp
80020438:	0000                	c.unimp
8002043a:	0000                	c.unimp
8002043c:	0000                	c.unimp
8002043e:	0000                	c.unimp
80020440:	0000                	c.unimp
80020442:	0000                	c.unimp
80020444:	0000                	c.unimp
80020446:	0000                	c.unimp
80020448:	0000                	c.unimp
8002044a:	0000                	c.unimp
8002044c:	0000                	c.unimp
8002044e:	0000                	c.unimp
80020450:	0000                	c.unimp
80020452:	0000                	c.unimp
80020454:	0000                	c.unimp
80020456:	0000                	c.unimp
80020458:	0000                	c.unimp
8002045a:	0000                	c.unimp
8002045c:	0000                	c.unimp
8002045e:	0000                	c.unimp
80020460:	0000                	c.unimp
80020462:	0000                	c.unimp
80020464:	0000                	c.unimp
80020466:	0000                	c.unimp
80020468:	0000                	c.unimp
8002046a:	0000                	c.unimp
8002046c:	0000                	c.unimp
8002046e:	0000                	c.unimp
80020470:	0000                	c.unimp
80020472:	0000                	c.unimp
80020474:	0000                	c.unimp
80020476:	0000                	c.unimp
80020478:	0000                	c.unimp
8002047a:	0000                	c.unimp
8002047c:	0000                	c.unimp
8002047e:	0000                	c.unimp
80020480:	0000                	c.unimp
80020482:	0000                	c.unimp
80020484:	0000                	c.unimp
80020486:	0000                	c.unimp
80020488:	0000                	c.unimp
8002048a:	0000                	c.unimp
8002048c:	0000                	c.unimp
8002048e:	0000                	c.unimp
80020490:	0000                	c.unimp
80020492:	0000                	c.unimp
80020494:	0000                	c.unimp
80020496:	0000                	c.unimp
80020498:	0000                	c.unimp
8002049a:	0000                	c.unimp
8002049c:	0000                	c.unimp
8002049e:	0000                	c.unimp
800204a0:	0000                	c.unimp
800204a2:	0000                	c.unimp
800204a4:	0000                	c.unimp
800204a6:	0000                	c.unimp
800204a8:	0000                	c.unimp
800204aa:	0000                	c.unimp
800204ac:	0000                	c.unimp
800204ae:	0000                	c.unimp
800204b0:	0000                	c.unimp
800204b2:	0000                	c.unimp
800204b4:	0000                	c.unimp
800204b6:	0000                	c.unimp
800204b8:	0000                	c.unimp
800204ba:	0000                	c.unimp
800204bc:	0000                	c.unimp
800204be:	0000                	c.unimp
800204c0:	0000                	c.unimp
800204c2:	0000                	c.unimp
800204c4:	0000                	c.unimp
800204c6:	0000                	c.unimp
800204c8:	0000                	c.unimp
800204ca:	0000                	c.unimp
800204cc:	0000                	c.unimp
800204ce:	0000                	c.unimp
800204d0:	0000                	c.unimp
800204d2:	0000                	c.unimp
800204d4:	0000                	c.unimp
800204d6:	0000                	c.unimp
800204d8:	0000                	c.unimp
800204da:	0000                	c.unimp
800204dc:	0000                	c.unimp
800204de:	0000                	c.unimp
800204e0:	0000                	c.unimp
800204e2:	0000                	c.unimp
800204e4:	0000                	c.unimp
800204e6:	0000                	c.unimp
800204e8:	0000                	c.unimp
800204ea:	0000                	c.unimp
800204ec:	0000                	c.unimp
800204ee:	0000                	c.unimp
800204f0:	0000                	c.unimp
800204f2:	0000                	c.unimp
800204f4:	0000                	c.unimp
800204f6:	0000                	c.unimp
800204f8:	0000                	c.unimp
800204fa:	0000                	c.unimp
800204fc:	0000                	c.unimp
800204fe:	0000                	c.unimp
80020500:	0000                	c.unimp
80020502:	0000                	c.unimp
80020504:	0000                	c.unimp
80020506:	0000                	c.unimp
80020508:	0000                	c.unimp
8002050a:	0000                	c.unimp
8002050c:	0000                	c.unimp
8002050e:	0000                	c.unimp
80020510:	0000                	c.unimp
80020512:	0000                	c.unimp
80020514:	0000                	c.unimp
80020516:	0000                	c.unimp
80020518:	0000                	c.unimp
8002051a:	0000                	c.unimp
8002051c:	0000                	c.unimp
8002051e:	0000                	c.unimp
80020520:	0000                	c.unimp
80020522:	0000                	c.unimp
80020524:	0000                	c.unimp
80020526:	0000                	c.unimp
80020528:	0000                	c.unimp
8002052a:	0000                	c.unimp
8002052c:	0000                	c.unimp
8002052e:	0000                	c.unimp
80020530:	0000                	c.unimp
80020532:	0000                	c.unimp
80020534:	0000                	c.unimp
80020536:	0000                	c.unimp
80020538:	0000                	c.unimp
8002053a:	0000                	c.unimp
8002053c:	0000                	c.unimp
8002053e:	0000                	c.unimp
80020540:	0000                	c.unimp
80020542:	0000                	c.unimp
80020544:	0000                	c.unimp
80020546:	0000                	c.unimp
80020548:	0000                	c.unimp
8002054a:	0000                	c.unimp
8002054c:	0000                	c.unimp
8002054e:	0000                	c.unimp
80020550:	0000                	c.unimp
80020552:	0000                	c.unimp
80020554:	0000                	c.unimp
80020556:	0000                	c.unimp
80020558:	0000                	c.unimp
8002055a:	0000                	c.unimp
8002055c:	0000                	c.unimp
8002055e:	0000                	c.unimp
80020560:	0000                	c.unimp
80020562:	0000                	c.unimp
80020564:	0000                	c.unimp
80020566:	0000                	c.unimp
80020568:	0000                	c.unimp
8002056a:	0000                	c.unimp
8002056c:	0000                	c.unimp
8002056e:	0000                	c.unimp
80020570:	0000                	c.unimp
80020572:	0000                	c.unimp
80020574:	0000                	c.unimp
80020576:	0000                	c.unimp
80020578:	0000                	c.unimp
8002057a:	0000                	c.unimp
8002057c:	0000                	c.unimp
8002057e:	0000                	c.unimp
80020580:	0000                	c.unimp
80020582:	0000                	c.unimp
80020584:	0000                	c.unimp
80020586:	0000                	c.unimp
80020588:	0000                	c.unimp
8002058a:	0000                	c.unimp
8002058c:	0000                	c.unimp
8002058e:	0000                	c.unimp
80020590:	0000                	c.unimp
80020592:	0000                	c.unimp
80020594:	0000                	c.unimp
80020596:	0000                	c.unimp
80020598:	0000                	c.unimp
8002059a:	0000                	c.unimp
8002059c:	0000                	c.unimp
8002059e:	0000                	c.unimp
800205a0:	0000                	c.unimp
800205a2:	0000                	c.unimp
800205a4:	0000                	c.unimp
800205a6:	0000                	c.unimp
800205a8:	0000                	c.unimp
800205aa:	0000                	c.unimp
800205ac:	0000                	c.unimp
800205ae:	0000                	c.unimp
800205b0:	0000                	c.unimp
800205b2:	0000                	c.unimp
800205b4:	0000                	c.unimp
800205b6:	0000                	c.unimp
800205b8:	0000                	c.unimp
800205ba:	0000                	c.unimp
800205bc:	0000                	c.unimp
800205be:	0000                	c.unimp
800205c0:	0000                	c.unimp
800205c2:	0000                	c.unimp
800205c4:	0000                	c.unimp
800205c6:	0000                	c.unimp
800205c8:	0000                	c.unimp
800205ca:	0000                	c.unimp
800205cc:	0000                	c.unimp
800205ce:	0000                	c.unimp
800205d0:	0000                	c.unimp
800205d2:	0000                	c.unimp
800205d4:	0000                	c.unimp
800205d6:	0000                	c.unimp
800205d8:	0000                	c.unimp
800205da:	0000                	c.unimp
800205dc:	0000                	c.unimp
800205de:	0000                	c.unimp
800205e0:	0000                	c.unimp
800205e2:	0000                	c.unimp
800205e4:	0000                	c.unimp
800205e6:	0000                	c.unimp
800205e8:	0000                	c.unimp
800205ea:	0000                	c.unimp
800205ec:	0000                	c.unimp
800205ee:	0000                	c.unimp
800205f0:	0000                	c.unimp
800205f2:	0000                	c.unimp
800205f4:	0000                	c.unimp
800205f6:	0000                	c.unimp
800205f8:	0000                	c.unimp
800205fa:	0000                	c.unimp
800205fc:	0000                	c.unimp
800205fe:	0000                	c.unimp
80020600:	0000                	c.unimp
80020602:	0000                	c.unimp
80020604:	0000                	c.unimp
80020606:	0000                	c.unimp
80020608:	0000                	c.unimp
8002060a:	0000                	c.unimp
8002060c:	0000                	c.unimp
8002060e:	0000                	c.unimp
80020610:	0000                	c.unimp
80020612:	0000                	c.unimp
80020614:	0000                	c.unimp
80020616:	0000                	c.unimp
80020618:	0000                	c.unimp
8002061a:	0000                	c.unimp
8002061c:	0000                	c.unimp
8002061e:	0000                	c.unimp
80020620:	0000                	c.unimp
80020622:	0000                	c.unimp
80020624:	0000                	c.unimp
80020626:	0000                	c.unimp
80020628:	0000                	c.unimp
8002062a:	0000                	c.unimp
8002062c:	0000                	c.unimp
8002062e:	0000                	c.unimp
80020630:	0000                	c.unimp
80020632:	0000                	c.unimp
80020634:	0000                	c.unimp
80020636:	0000                	c.unimp
80020638:	0000                	c.unimp
8002063a:	0000                	c.unimp
8002063c:	0000                	c.unimp
8002063e:	0000                	c.unimp
80020640:	0000                	c.unimp
80020642:	0000                	c.unimp
80020644:	0000                	c.unimp
80020646:	0000                	c.unimp
80020648:	0000                	c.unimp
8002064a:	0000                	c.unimp
8002064c:	0000                	c.unimp
8002064e:	0000                	c.unimp
80020650:	0000                	c.unimp
80020652:	0000                	c.unimp
80020654:	0000                	c.unimp
80020656:	0000                	c.unimp
80020658:	0000                	c.unimp
8002065a:	0000                	c.unimp
8002065c:	0000                	c.unimp
8002065e:	0000                	c.unimp
80020660:	0000                	c.unimp
80020662:	0000                	c.unimp
80020664:	0000                	c.unimp
80020666:	0000                	c.unimp
80020668:	0000                	c.unimp
8002066a:	0000                	c.unimp
8002066c:	0000                	c.unimp
8002066e:	0000                	c.unimp
80020670:	0000                	c.unimp
80020672:	0000                	c.unimp
80020674:	0000                	c.unimp
80020676:	0000                	c.unimp
80020678:	0000                	c.unimp
8002067a:	0000                	c.unimp
8002067c:	0000                	c.unimp
8002067e:	0000                	c.unimp
80020680:	0000                	c.unimp
80020682:	0000                	c.unimp
80020684:	0000                	c.unimp
80020686:	0000                	c.unimp
80020688:	0000                	c.unimp
8002068a:	0000                	c.unimp
8002068c:	0000                	c.unimp
8002068e:	0000                	c.unimp
80020690:	0000                	c.unimp
80020692:	0000                	c.unimp
80020694:	0000                	c.unimp
80020696:	0000                	c.unimp
80020698:	0000                	c.unimp
8002069a:	0000                	c.unimp
8002069c:	0000                	c.unimp
8002069e:	0000                	c.unimp
800206a0:	0000                	c.unimp
800206a2:	0000                	c.unimp
800206a4:	0000                	c.unimp
800206a6:	0000                	c.unimp
800206a8:	0000                	c.unimp
800206aa:	0000                	c.unimp
800206ac:	0000                	c.unimp
800206ae:	0000                	c.unimp
800206b0:	0000                	c.unimp
800206b2:	0000                	c.unimp
800206b4:	0000                	c.unimp
800206b6:	0000                	c.unimp
800206b8:	0000                	c.unimp
800206ba:	0000                	c.unimp
800206bc:	0000                	c.unimp
800206be:	0000                	c.unimp
800206c0:	0000                	c.unimp
800206c2:	0000                	c.unimp
800206c4:	0000                	c.unimp
800206c6:	0000                	c.unimp
800206c8:	0000                	c.unimp
800206ca:	0000                	c.unimp
800206cc:	0000                	c.unimp
800206ce:	0000                	c.unimp
800206d0:	0000                	c.unimp
800206d2:	0000                	c.unimp
800206d4:	0000                	c.unimp
800206d6:	0000                	c.unimp
800206d8:	0000                	c.unimp
800206da:	0000                	c.unimp
800206dc:	0000                	c.unimp
800206de:	0000                	c.unimp
800206e0:	0000                	c.unimp
800206e2:	0000                	c.unimp
800206e4:	0000                	c.unimp
800206e6:	0000                	c.unimp
800206e8:	0000                	c.unimp
800206ea:	0000                	c.unimp
800206ec:	0000                	c.unimp
800206ee:	0000                	c.unimp
800206f0:	0000                	c.unimp
800206f2:	0000                	c.unimp
800206f4:	0000                	c.unimp
800206f6:	0000                	c.unimp
800206f8:	0000                	c.unimp
800206fa:	0000                	c.unimp
800206fc:	0000                	c.unimp
800206fe:	0000                	c.unimp
80020700:	0000                	c.unimp
80020702:	0000                	c.unimp
80020704:	0000                	c.unimp
80020706:	0000                	c.unimp
80020708:	0000                	c.unimp
8002070a:	0000                	c.unimp
8002070c:	0000                	c.unimp
8002070e:	0000                	c.unimp
80020710:	0000                	c.unimp
80020712:	0000                	c.unimp
80020714:	0000                	c.unimp
80020716:	0000                	c.unimp
80020718:	0000                	c.unimp
8002071a:	0000                	c.unimp
8002071c:	0000                	c.unimp
8002071e:	0000                	c.unimp
80020720:	0000                	c.unimp
80020722:	0000                	c.unimp
80020724:	0000                	c.unimp
80020726:	0000                	c.unimp
80020728:	0000                	c.unimp
8002072a:	0000                	c.unimp
8002072c:	0000                	c.unimp
8002072e:	0000                	c.unimp
80020730:	0000                	c.unimp
80020732:	0000                	c.unimp
80020734:	0000                	c.unimp
80020736:	0000                	c.unimp
80020738:	0000                	c.unimp
8002073a:	0000                	c.unimp
8002073c:	0000                	c.unimp
8002073e:	0000                	c.unimp
80020740:	0000                	c.unimp
80020742:	0000                	c.unimp
80020744:	0000                	c.unimp
80020746:	0000                	c.unimp
80020748:	0000                	c.unimp
8002074a:	0000                	c.unimp
8002074c:	0000                	c.unimp
8002074e:	0000                	c.unimp
80020750:	0000                	c.unimp
80020752:	0000                	c.unimp
80020754:	0000                	c.unimp
80020756:	0000                	c.unimp
80020758:	0000                	c.unimp
8002075a:	0000                	c.unimp
8002075c:	0000                	c.unimp
8002075e:	0000                	c.unimp
80020760:	0000                	c.unimp
80020762:	0000                	c.unimp
80020764:	0000                	c.unimp
80020766:	0000                	c.unimp
80020768:	0000                	c.unimp
8002076a:	0000                	c.unimp
8002076c:	0000                	c.unimp
8002076e:	0000                	c.unimp
80020770:	0000                	c.unimp
80020772:	0000                	c.unimp
80020774:	0000                	c.unimp
80020776:	0000                	c.unimp
80020778:	0000                	c.unimp
8002077a:	0000                	c.unimp
8002077c:	0000                	c.unimp
8002077e:	0000                	c.unimp
80020780:	0000                	c.unimp
80020782:	0000                	c.unimp
80020784:	0000                	c.unimp
80020786:	0000                	c.unimp
80020788:	0000                	c.unimp
8002078a:	0000                	c.unimp
8002078c:	0000                	c.unimp
8002078e:	0000                	c.unimp
80020790:	0000                	c.unimp
80020792:	0000                	c.unimp
80020794:	0000                	c.unimp
80020796:	0000                	c.unimp
80020798:	0000                	c.unimp
8002079a:	0000                	c.unimp
8002079c:	0000                	c.unimp
8002079e:	0000                	c.unimp
800207a0:	0000                	c.unimp
800207a2:	0000                	c.unimp
800207a4:	0000                	c.unimp
800207a6:	0000                	c.unimp
800207a8:	0000                	c.unimp
800207aa:	0000                	c.unimp
800207ac:	0000                	c.unimp
800207ae:	0000                	c.unimp
800207b0:	0000                	c.unimp
800207b2:	0000                	c.unimp
800207b4:	0000                	c.unimp
800207b6:	0000                	c.unimp
800207b8:	0000                	c.unimp
800207ba:	0000                	c.unimp
800207bc:	0000                	c.unimp
800207be:	0000                	c.unimp
800207c0:	0000                	c.unimp
800207c2:	0000                	c.unimp
800207c4:	0000                	c.unimp
800207c6:	0000                	c.unimp
800207c8:	0000                	c.unimp
800207ca:	0000                	c.unimp
800207cc:	0000                	c.unimp
800207ce:	0000                	c.unimp
800207d0:	0000                	c.unimp
800207d2:	0000                	c.unimp
800207d4:	0000                	c.unimp
800207d6:	0000                	c.unimp
800207d8:	0000                	c.unimp
800207da:	0000                	c.unimp
800207dc:	0000                	c.unimp
800207de:	0000                	c.unimp
800207e0:	0000                	c.unimp
800207e2:	0000                	c.unimp
800207e4:	0000                	c.unimp
800207e6:	0000                	c.unimp
800207e8:	0000                	c.unimp
800207ea:	0000                	c.unimp
800207ec:	0000                	c.unimp
800207ee:	0000                	c.unimp
800207f0:	0000                	c.unimp
800207f2:	0000                	c.unimp
800207f4:	0000                	c.unimp
800207f6:	0000                	c.unimp
800207f8:	0000                	c.unimp
800207fa:	0000                	c.unimp
800207fc:	0000                	c.unimp
800207fe:	0000                	c.unimp
80020800:	0000                	c.unimp
80020802:	0000                	c.unimp
80020804:	0000                	c.unimp
80020806:	0000                	c.unimp
80020808:	0000                	c.unimp
8002080a:	0000                	c.unimp
8002080c:	0000                	c.unimp
8002080e:	0000                	c.unimp
80020810:	0000                	c.unimp
80020812:	0000                	c.unimp
80020814:	0000                	c.unimp
80020816:	0000                	c.unimp
80020818:	0000                	c.unimp
8002081a:	0000                	c.unimp
8002081c:	0000                	c.unimp
8002081e:	0000                	c.unimp
80020820:	0000                	c.unimp
80020822:	0000                	c.unimp
80020824:	0000                	c.unimp
80020826:	0000                	c.unimp
80020828:	0000                	c.unimp
8002082a:	0000                	c.unimp
8002082c:	0000                	c.unimp
8002082e:	0000                	c.unimp
80020830:	0000                	c.unimp
80020832:	0000                	c.unimp
80020834:	0000                	c.unimp
80020836:	0000                	c.unimp
80020838:	0000                	c.unimp
8002083a:	0000                	c.unimp
8002083c:	0000                	c.unimp
8002083e:	0000                	c.unimp
80020840:	0000                	c.unimp
80020842:	0000                	c.unimp
80020844:	0000                	c.unimp
80020846:	0000                	c.unimp
80020848:	0000                	c.unimp
8002084a:	0000                	c.unimp
8002084c:	0000                	c.unimp
8002084e:	0000                	c.unimp
80020850:	0000                	c.unimp
80020852:	0000                	c.unimp
80020854:	0000                	c.unimp
80020856:	0000                	c.unimp
80020858:	0000                	c.unimp
8002085a:	0000                	c.unimp
8002085c:	0000                	c.unimp
8002085e:	0000                	c.unimp
80020860:	0000                	c.unimp
80020862:	0000                	c.unimp
80020864:	0000                	c.unimp
80020866:	0000                	c.unimp
80020868:	0000                	c.unimp
8002086a:	0000                	c.unimp
8002086c:	0000                	c.unimp
8002086e:	0000                	c.unimp
80020870:	0000                	c.unimp
80020872:	0000                	c.unimp
80020874:	0000                	c.unimp
80020876:	0000                	c.unimp
80020878:	0000                	c.unimp
8002087a:	0000                	c.unimp
8002087c:	0000                	c.unimp
8002087e:	0000                	c.unimp
80020880:	0000                	c.unimp
80020882:	0000                	c.unimp
80020884:	0000                	c.unimp
80020886:	0000                	c.unimp
80020888:	0000                	c.unimp
8002088a:	0000                	c.unimp
8002088c:	0000                	c.unimp
8002088e:	0000                	c.unimp
80020890:	0000                	c.unimp
80020892:	0000                	c.unimp
80020894:	0000                	c.unimp
80020896:	0000                	c.unimp
80020898:	0000                	c.unimp
8002089a:	0000                	c.unimp
8002089c:	0000                	c.unimp
8002089e:	0000                	c.unimp
800208a0:	0000                	c.unimp
800208a2:	0000                	c.unimp
800208a4:	0000                	c.unimp
800208a6:	0000                	c.unimp
800208a8:	0000                	c.unimp
800208aa:	0000                	c.unimp
800208ac:	0000                	c.unimp
800208ae:	0000                	c.unimp
800208b0:	0000                	c.unimp
800208b2:	0000                	c.unimp
800208b4:	0000                	c.unimp
800208b6:	0000                	c.unimp
800208b8:	0000                	c.unimp
800208ba:	0000                	c.unimp
800208bc:	0000                	c.unimp
800208be:	0000                	c.unimp
800208c0:	0000                	c.unimp
800208c2:	0000                	c.unimp
800208c4:	0000                	c.unimp
800208c6:	0000                	c.unimp
800208c8:	0000                	c.unimp
800208ca:	0000                	c.unimp
800208cc:	0000                	c.unimp
800208ce:	0000                	c.unimp
800208d0:	0000                	c.unimp
800208d2:	0000                	c.unimp
800208d4:	0000                	c.unimp
800208d6:	0000                	c.unimp
800208d8:	0000                	c.unimp
800208da:	0000                	c.unimp
800208dc:	0000                	c.unimp
800208de:	0000                	c.unimp
800208e0:	0000                	c.unimp
800208e2:	0000                	c.unimp
800208e4:	0000                	c.unimp
800208e6:	0000                	c.unimp
800208e8:	0000                	c.unimp
800208ea:	0000                	c.unimp
800208ec:	0000                	c.unimp
800208ee:	0000                	c.unimp
800208f0:	0000                	c.unimp
800208f2:	0000                	c.unimp
800208f4:	0000                	c.unimp
800208f6:	0000                	c.unimp
800208f8:	0000                	c.unimp
800208fa:	0000                	c.unimp
800208fc:	0000                	c.unimp
800208fe:	0000                	c.unimp
80020900:	0000                	c.unimp
80020902:	0000                	c.unimp
80020904:	0000                	c.unimp
80020906:	0000                	c.unimp
80020908:	0000                	c.unimp
8002090a:	0000                	c.unimp
8002090c:	0000                	c.unimp
8002090e:	0000                	c.unimp
80020910:	0000                	c.unimp
80020912:	0000                	c.unimp
80020914:	0000                	c.unimp
80020916:	0000                	c.unimp
80020918:	0000                	c.unimp
8002091a:	0000                	c.unimp
8002091c:	0000                	c.unimp
8002091e:	0000                	c.unimp
80020920:	0000                	c.unimp
80020922:	0000                	c.unimp
80020924:	0000                	c.unimp
80020926:	0000                	c.unimp
80020928:	0000                	c.unimp
8002092a:	0000                	c.unimp
8002092c:	0000                	c.unimp
8002092e:	0000                	c.unimp
80020930:	0000                	c.unimp
80020932:	0000                	c.unimp
80020934:	0000                	c.unimp
80020936:	0000                	c.unimp
80020938:	0000                	c.unimp
8002093a:	0000                	c.unimp
8002093c:	0000                	c.unimp
8002093e:	0000                	c.unimp
80020940:	0000                	c.unimp
80020942:	0000                	c.unimp
80020944:	0000                	c.unimp
80020946:	0000                	c.unimp
80020948:	0000                	c.unimp
8002094a:	0000                	c.unimp
8002094c:	0000                	c.unimp
8002094e:	0000                	c.unimp
80020950:	0000                	c.unimp
80020952:	0000                	c.unimp
80020954:	0000                	c.unimp
80020956:	0000                	c.unimp
80020958:	0000                	c.unimp
8002095a:	0000                	c.unimp
8002095c:	0000                	c.unimp
8002095e:	0000                	c.unimp
80020960:	0000                	c.unimp
80020962:	0000                	c.unimp
80020964:	0000                	c.unimp
80020966:	0000                	c.unimp
80020968:	0000                	c.unimp
8002096a:	0000                	c.unimp
8002096c:	0000                	c.unimp
8002096e:	0000                	c.unimp
80020970:	0000                	c.unimp
80020972:	0000                	c.unimp
80020974:	0000                	c.unimp
80020976:	0000                	c.unimp
80020978:	0000                	c.unimp
8002097a:	0000                	c.unimp
8002097c:	0000                	c.unimp
8002097e:	0000                	c.unimp
80020980:	0000                	c.unimp
80020982:	0000                	c.unimp
80020984:	0000                	c.unimp
80020986:	0000                	c.unimp
80020988:	0000                	c.unimp
8002098a:	0000                	c.unimp
8002098c:	0000                	c.unimp
8002098e:	0000                	c.unimp
80020990:	0000                	c.unimp
80020992:	0000                	c.unimp
80020994:	0000                	c.unimp
80020996:	0000                	c.unimp
80020998:	0000                	c.unimp
8002099a:	0000                	c.unimp
8002099c:	0000                	c.unimp
8002099e:	0000                	c.unimp
800209a0:	0000                	c.unimp
800209a2:	0000                	c.unimp
800209a4:	0000                	c.unimp
800209a6:	0000                	c.unimp
800209a8:	0000                	c.unimp
800209aa:	0000                	c.unimp
800209ac:	0000                	c.unimp
800209ae:	0000                	c.unimp
800209b0:	0000                	c.unimp
800209b2:	0000                	c.unimp
800209b4:	0000                	c.unimp
800209b6:	0000                	c.unimp
800209b8:	0000                	c.unimp
800209ba:	0000                	c.unimp
800209bc:	0000                	c.unimp
800209be:	0000                	c.unimp
800209c0:	0000                	c.unimp
800209c2:	0000                	c.unimp
800209c4:	0000                	c.unimp
800209c6:	0000                	c.unimp
800209c8:	0000                	c.unimp
800209ca:	0000                	c.unimp
800209cc:	0000                	c.unimp
800209ce:	0000                	c.unimp
800209d0:	0000                	c.unimp
800209d2:	0000                	c.unimp
800209d4:	0000                	c.unimp
800209d6:	0000                	c.unimp
800209d8:	0000                	c.unimp
800209da:	0000                	c.unimp
800209dc:	0000                	c.unimp
800209de:	0000                	c.unimp
800209e0:	0000                	c.unimp
800209e2:	0000                	c.unimp
800209e4:	0000                	c.unimp
800209e6:	0000                	c.unimp
800209e8:	0000                	c.unimp
800209ea:	0000                	c.unimp
800209ec:	0000                	c.unimp
800209ee:	0000                	c.unimp
800209f0:	0000                	c.unimp
800209f2:	0000                	c.unimp
800209f4:	0000                	c.unimp
800209f6:	0000                	c.unimp
800209f8:	0000                	c.unimp
800209fa:	0000                	c.unimp
800209fc:	0000                	c.unimp
800209fe:	0000                	c.unimp
80020a00:	0000                	c.unimp
80020a02:	0000                	c.unimp
80020a04:	0000                	c.unimp
80020a06:	0000                	c.unimp
80020a08:	0000                	c.unimp
80020a0a:	0000                	c.unimp
80020a0c:	0000                	c.unimp
80020a0e:	0000                	c.unimp
80020a10:	0000                	c.unimp
80020a12:	0000                	c.unimp
80020a14:	0000                	c.unimp
80020a16:	0000                	c.unimp
80020a18:	0000                	c.unimp
80020a1a:	0000                	c.unimp
80020a1c:	0000                	c.unimp
80020a1e:	0000                	c.unimp
80020a20:	0000                	c.unimp
80020a22:	0000                	c.unimp
80020a24:	0000                	c.unimp
80020a26:	0000                	c.unimp
80020a28:	0000                	c.unimp
80020a2a:	0000                	c.unimp
80020a2c:	0000                	c.unimp
80020a2e:	0000                	c.unimp
80020a30:	0000                	c.unimp
80020a32:	0000                	c.unimp
80020a34:	0000                	c.unimp
80020a36:	0000                	c.unimp
80020a38:	0000                	c.unimp
80020a3a:	0000                	c.unimp
80020a3c:	0000                	c.unimp
80020a3e:	0000                	c.unimp
80020a40:	0000                	c.unimp
80020a42:	0000                	c.unimp
80020a44:	0000                	c.unimp
80020a46:	0000                	c.unimp
80020a48:	0000                	c.unimp
80020a4a:	0000                	c.unimp
80020a4c:	0000                	c.unimp
80020a4e:	0000                	c.unimp
80020a50:	0000                	c.unimp
80020a52:	0000                	c.unimp
80020a54:	0000                	c.unimp
80020a56:	0000                	c.unimp
80020a58:	0000                	c.unimp
80020a5a:	0000                	c.unimp
80020a5c:	0000                	c.unimp
80020a5e:	0000                	c.unimp
80020a60:	0000                	c.unimp
80020a62:	0000                	c.unimp
80020a64:	0000                	c.unimp
80020a66:	0000                	c.unimp
80020a68:	0000                	c.unimp
80020a6a:	0000                	c.unimp
80020a6c:	0000                	c.unimp
80020a6e:	0000                	c.unimp
80020a70:	0000                	c.unimp
80020a72:	0000                	c.unimp
80020a74:	0000                	c.unimp
80020a76:	0000                	c.unimp
80020a78:	0000                	c.unimp
80020a7a:	0000                	c.unimp
80020a7c:	0000                	c.unimp
80020a7e:	0000                	c.unimp
80020a80:	0000                	c.unimp
80020a82:	0000                	c.unimp
80020a84:	0000                	c.unimp
80020a86:	0000                	c.unimp
80020a88:	0000                	c.unimp
80020a8a:	0000                	c.unimp
80020a8c:	0000                	c.unimp
80020a8e:	0000                	c.unimp
80020a90:	0000                	c.unimp
80020a92:	0000                	c.unimp
80020a94:	0000                	c.unimp
80020a96:	0000                	c.unimp
80020a98:	0000                	c.unimp
80020a9a:	0000                	c.unimp
80020a9c:	0000                	c.unimp
80020a9e:	0000                	c.unimp
80020aa0:	0000                	c.unimp
80020aa2:	0000                	c.unimp
80020aa4:	0000                	c.unimp
80020aa6:	0000                	c.unimp
80020aa8:	0000                	c.unimp
80020aaa:	0000                	c.unimp
80020aac:	0000                	c.unimp
80020aae:	0000                	c.unimp
80020ab0:	0000                	c.unimp
80020ab2:	0000                	c.unimp
80020ab4:	0000                	c.unimp
80020ab6:	0000                	c.unimp
80020ab8:	0000                	c.unimp
80020aba:	0000                	c.unimp
80020abc:	0000                	c.unimp
80020abe:	0000                	c.unimp
80020ac0:	0000                	c.unimp
80020ac2:	0000                	c.unimp
80020ac4:	0000                	c.unimp
80020ac6:	0000                	c.unimp
80020ac8:	0000                	c.unimp
80020aca:	0000                	c.unimp
80020acc:	0000                	c.unimp
80020ace:	0000                	c.unimp
80020ad0:	0000                	c.unimp
80020ad2:	0000                	c.unimp
80020ad4:	0000                	c.unimp
80020ad6:	0000                	c.unimp
80020ad8:	0000                	c.unimp
80020ada:	0000                	c.unimp
80020adc:	0000                	c.unimp
80020ade:	0000                	c.unimp
80020ae0:	0000                	c.unimp
80020ae2:	0000                	c.unimp
80020ae4:	0000                	c.unimp
80020ae6:	0000                	c.unimp
80020ae8:	0000                	c.unimp
80020aea:	0000                	c.unimp
80020aec:	0000                	c.unimp
80020aee:	0000                	c.unimp
80020af0:	0000                	c.unimp
80020af2:	0000                	c.unimp
80020af4:	0000                	c.unimp
80020af6:	0000                	c.unimp
80020af8:	0000                	c.unimp
80020afa:	0000                	c.unimp
80020afc:	0000                	c.unimp
80020afe:	0000                	c.unimp
80020b00:	0000                	c.unimp
80020b02:	0000                	c.unimp
80020b04:	0000                	c.unimp
80020b06:	0000                	c.unimp
80020b08:	0000                	c.unimp
80020b0a:	0000                	c.unimp
80020b0c:	0000                	c.unimp
80020b0e:	0000                	c.unimp
80020b10:	0000                	c.unimp
80020b12:	0000                	c.unimp
80020b14:	0000                	c.unimp
80020b16:	0000                	c.unimp
80020b18:	0000                	c.unimp
80020b1a:	0000                	c.unimp
80020b1c:	0000                	c.unimp
80020b1e:	0000                	c.unimp
80020b20:	0000                	c.unimp
80020b22:	0000                	c.unimp
80020b24:	0000                	c.unimp
80020b26:	0000                	c.unimp
80020b28:	0000                	c.unimp
80020b2a:	0000                	c.unimp
80020b2c:	0000                	c.unimp
80020b2e:	0000                	c.unimp
80020b30:	0000                	c.unimp
80020b32:	0000                	c.unimp
80020b34:	0000                	c.unimp
80020b36:	0000                	c.unimp
80020b38:	0000                	c.unimp
80020b3a:	0000                	c.unimp
80020b3c:	0000                	c.unimp
80020b3e:	0000                	c.unimp
80020b40:	0000                	c.unimp
80020b42:	0000                	c.unimp
80020b44:	0000                	c.unimp
80020b46:	0000                	c.unimp
80020b48:	0000                	c.unimp
80020b4a:	0000                	c.unimp
80020b4c:	0000                	c.unimp
80020b4e:	0000                	c.unimp
80020b50:	0000                	c.unimp
80020b52:	0000                	c.unimp
80020b54:	0000                	c.unimp
80020b56:	0000                	c.unimp
80020b58:	0000                	c.unimp
80020b5a:	0000                	c.unimp
80020b5c:	0000                	c.unimp
80020b5e:	0000                	c.unimp
80020b60:	0000                	c.unimp
80020b62:	0000                	c.unimp
80020b64:	0000                	c.unimp
80020b66:	0000                	c.unimp
80020b68:	0000                	c.unimp
80020b6a:	0000                	c.unimp
80020b6c:	0000                	c.unimp
80020b6e:	0000                	c.unimp
80020b70:	0000                	c.unimp
80020b72:	0000                	c.unimp
80020b74:	0000                	c.unimp
80020b76:	0000                	c.unimp
80020b78:	0000                	c.unimp
80020b7a:	0000                	c.unimp
80020b7c:	0000                	c.unimp
80020b7e:	0000                	c.unimp
80020b80:	0000                	c.unimp
80020b82:	0000                	c.unimp
80020b84:	0000                	c.unimp
80020b86:	0000                	c.unimp
80020b88:	0000                	c.unimp
80020b8a:	0000                	c.unimp
80020b8c:	0000                	c.unimp
80020b8e:	0000                	c.unimp
80020b90:	0000                	c.unimp
80020b92:	0000                	c.unimp
80020b94:	0000                	c.unimp
80020b96:	0000                	c.unimp
80020b98:	0000                	c.unimp
80020b9a:	0000                	c.unimp
80020b9c:	0000                	c.unimp
80020b9e:	0000                	c.unimp
80020ba0:	0000                	c.unimp
80020ba2:	0000                	c.unimp
80020ba4:	0000                	c.unimp
80020ba6:	0000                	c.unimp
80020ba8:	0000                	c.unimp
80020baa:	0000                	c.unimp
80020bac:	0000                	c.unimp
80020bae:	0000                	c.unimp
80020bb0:	0000                	c.unimp
80020bb2:	0000                	c.unimp
80020bb4:	0000                	c.unimp
80020bb6:	0000                	c.unimp
80020bb8:	0000                	c.unimp
80020bba:	0000                	c.unimp
80020bbc:	0000                	c.unimp
80020bbe:	0000                	c.unimp
80020bc0:	0000                	c.unimp
80020bc2:	0000                	c.unimp
80020bc4:	0000                	c.unimp
80020bc6:	0000                	c.unimp
80020bc8:	0000                	c.unimp
80020bca:	0000                	c.unimp
80020bcc:	0000                	c.unimp
80020bce:	0000                	c.unimp
80020bd0:	0000                	c.unimp
80020bd2:	0000                	c.unimp
80020bd4:	0000                	c.unimp
80020bd6:	0000                	c.unimp
80020bd8:	0000                	c.unimp
80020bda:	0000                	c.unimp
80020bdc:	0000                	c.unimp
80020bde:	0000                	c.unimp
80020be0:	0000                	c.unimp
80020be2:	0000                	c.unimp
80020be4:	0000                	c.unimp
80020be6:	0000                	c.unimp
80020be8:	0000                	c.unimp
80020bea:	0000                	c.unimp
80020bec:	0000                	c.unimp
80020bee:	0000                	c.unimp
80020bf0:	0000                	c.unimp
80020bf2:	0000                	c.unimp
80020bf4:	0000                	c.unimp
80020bf6:	0000                	c.unimp
80020bf8:	0000                	c.unimp
80020bfa:	0000                	c.unimp
80020bfc:	0000                	c.unimp
80020bfe:	0000                	c.unimp
80020c00:	0000                	c.unimp
80020c02:	0000                	c.unimp
80020c04:	0000                	c.unimp
80020c06:	0000                	c.unimp
80020c08:	0000                	c.unimp
80020c0a:	0000                	c.unimp
80020c0c:	0000                	c.unimp
80020c0e:	0000                	c.unimp
80020c10:	0000                	c.unimp
80020c12:	0000                	c.unimp
80020c14:	0000                	c.unimp
80020c16:	0000                	c.unimp
80020c18:	0000                	c.unimp
80020c1a:	0000                	c.unimp
80020c1c:	0000                	c.unimp
80020c1e:	0000                	c.unimp
80020c20:	0000                	c.unimp
80020c22:	0000                	c.unimp
80020c24:	0000                	c.unimp
80020c26:	0000                	c.unimp
80020c28:	0000                	c.unimp
80020c2a:	0000                	c.unimp
80020c2c:	0000                	c.unimp
80020c2e:	0000                	c.unimp
80020c30:	0000                	c.unimp
80020c32:	0000                	c.unimp
80020c34:	0000                	c.unimp
80020c36:	0000                	c.unimp
80020c38:	0000                	c.unimp
80020c3a:	0000                	c.unimp
80020c3c:	0000                	c.unimp
80020c3e:	0000                	c.unimp
80020c40:	0000                	c.unimp
80020c42:	0000                	c.unimp
80020c44:	0000                	c.unimp
80020c46:	0000                	c.unimp
80020c48:	0000                	c.unimp
80020c4a:	0000                	c.unimp
80020c4c:	0000                	c.unimp
80020c4e:	0000                	c.unimp
80020c50:	0000                	c.unimp
80020c52:	0000                	c.unimp
80020c54:	0000                	c.unimp
80020c56:	0000                	c.unimp
80020c58:	0000                	c.unimp
80020c5a:	0000                	c.unimp
80020c5c:	0000                	c.unimp
80020c5e:	0000                	c.unimp
80020c60:	0000                	c.unimp
80020c62:	0000                	c.unimp
80020c64:	0000                	c.unimp
80020c66:	0000                	c.unimp
80020c68:	0000                	c.unimp
80020c6a:	0000                	c.unimp
80020c6c:	0000                	c.unimp
80020c6e:	0000                	c.unimp
80020c70:	0000                	c.unimp
80020c72:	0000                	c.unimp
80020c74:	0000                	c.unimp
80020c76:	0000                	c.unimp
80020c78:	0000                	c.unimp
80020c7a:	0000                	c.unimp
80020c7c:	0000                	c.unimp
80020c7e:	0000                	c.unimp
80020c80:	0000                	c.unimp
80020c82:	0000                	c.unimp
80020c84:	0000                	c.unimp
80020c86:	0000                	c.unimp
80020c88:	0000                	c.unimp
80020c8a:	0000                	c.unimp
80020c8c:	0000                	c.unimp
80020c8e:	0000                	c.unimp
80020c90:	0000                	c.unimp
80020c92:	0000                	c.unimp
80020c94:	0000                	c.unimp
80020c96:	0000                	c.unimp
80020c98:	0000                	c.unimp
80020c9a:	0000                	c.unimp
80020c9c:	0000                	c.unimp
80020c9e:	0000                	c.unimp
80020ca0:	0000                	c.unimp
80020ca2:	0000                	c.unimp
80020ca4:	0000                	c.unimp
80020ca6:	0000                	c.unimp
80020ca8:	0000                	c.unimp
80020caa:	0000                	c.unimp
80020cac:	0000                	c.unimp
80020cae:	0000                	c.unimp
80020cb0:	0000                	c.unimp
80020cb2:	0000                	c.unimp
80020cb4:	0000                	c.unimp
80020cb6:	0000                	c.unimp
80020cb8:	0000                	c.unimp
80020cba:	0000                	c.unimp
80020cbc:	0000                	c.unimp
80020cbe:	0000                	c.unimp
80020cc0:	0000                	c.unimp
80020cc2:	0000                	c.unimp
80020cc4:	0000                	c.unimp
80020cc6:	0000                	c.unimp
80020cc8:	0000                	c.unimp
80020cca:	0000                	c.unimp
80020ccc:	0000                	c.unimp
80020cce:	0000                	c.unimp
80020cd0:	0000                	c.unimp
80020cd2:	0000                	c.unimp
80020cd4:	0000                	c.unimp
80020cd6:	0000                	c.unimp
80020cd8:	0000                	c.unimp
80020cda:	0000                	c.unimp
80020cdc:	0000                	c.unimp
80020cde:	0000                	c.unimp
80020ce0:	0000                	c.unimp
80020ce2:	0000                	c.unimp
80020ce4:	0000                	c.unimp
80020ce6:	0000                	c.unimp
80020ce8:	0000                	c.unimp
80020cea:	0000                	c.unimp
80020cec:	0000                	c.unimp
80020cee:	0000                	c.unimp
80020cf0:	0000                	c.unimp
80020cf2:	0000                	c.unimp
80020cf4:	0000                	c.unimp
80020cf6:	0000                	c.unimp
80020cf8:	0000                	c.unimp
80020cfa:	0000                	c.unimp
80020cfc:	0000                	c.unimp
80020cfe:	0000                	c.unimp
80020d00:	0000                	c.unimp
80020d02:	0000                	c.unimp
80020d04:	0000                	c.unimp
80020d06:	0000                	c.unimp
80020d08:	0000                	c.unimp
80020d0a:	0000                	c.unimp
80020d0c:	0000                	c.unimp
80020d0e:	0000                	c.unimp
80020d10:	0000                	c.unimp
80020d12:	0000                	c.unimp
80020d14:	0000                	c.unimp
80020d16:	0000                	c.unimp
80020d18:	0000                	c.unimp
80020d1a:	0000                	c.unimp
80020d1c:	0000                	c.unimp
80020d1e:	0000                	c.unimp
80020d20:	0000                	c.unimp
80020d22:	0000                	c.unimp
80020d24:	0000                	c.unimp
80020d26:	0000                	c.unimp
80020d28:	0000                	c.unimp
80020d2a:	0000                	c.unimp
80020d2c:	0000                	c.unimp
80020d2e:	0000                	c.unimp
80020d30:	0000                	c.unimp
80020d32:	0000                	c.unimp
80020d34:	0000                	c.unimp
80020d36:	0000                	c.unimp
80020d38:	0000                	c.unimp
80020d3a:	0000                	c.unimp
80020d3c:	0000                	c.unimp
80020d3e:	0000                	c.unimp
80020d40:	0000                	c.unimp
80020d42:	0000                	c.unimp
80020d44:	0000                	c.unimp
80020d46:	0000                	c.unimp
80020d48:	0000                	c.unimp
80020d4a:	0000                	c.unimp
80020d4c:	0000                	c.unimp
80020d4e:	0000                	c.unimp
80020d50:	0000                	c.unimp
80020d52:	0000                	c.unimp
80020d54:	0000                	c.unimp
80020d56:	0000                	c.unimp
80020d58:	0000                	c.unimp
80020d5a:	0000                	c.unimp
80020d5c:	0000                	c.unimp
80020d5e:	0000                	c.unimp
80020d60:	0000                	c.unimp
80020d62:	0000                	c.unimp
80020d64:	0000                	c.unimp
80020d66:	0000                	c.unimp
80020d68:	0000                	c.unimp
80020d6a:	0000                	c.unimp
80020d6c:	0000                	c.unimp
80020d6e:	0000                	c.unimp
80020d70:	0000                	c.unimp
80020d72:	0000                	c.unimp
80020d74:	0000                	c.unimp
80020d76:	0000                	c.unimp
80020d78:	0000                	c.unimp
80020d7a:	0000                	c.unimp
80020d7c:	0000                	c.unimp
80020d7e:	0000                	c.unimp
80020d80:	0000                	c.unimp
80020d82:	0000                	c.unimp
80020d84:	0000                	c.unimp
80020d86:	0000                	c.unimp
80020d88:	0000                	c.unimp
80020d8a:	0000                	c.unimp
80020d8c:	0000                	c.unimp
80020d8e:	0000                	c.unimp
80020d90:	0000                	c.unimp
80020d92:	0000                	c.unimp
80020d94:	0000                	c.unimp
80020d96:	0000                	c.unimp
80020d98:	0000                	c.unimp
80020d9a:	0000                	c.unimp
80020d9c:	0000                	c.unimp
80020d9e:	0000                	c.unimp
80020da0:	0000                	c.unimp
80020da2:	0000                	c.unimp
80020da4:	0000                	c.unimp
80020da6:	0000                	c.unimp
80020da8:	0000                	c.unimp
80020daa:	0000                	c.unimp
80020dac:	0000                	c.unimp
80020dae:	0000                	c.unimp
80020db0:	0000                	c.unimp
80020db2:	0000                	c.unimp
80020db4:	0000                	c.unimp
80020db6:	0000                	c.unimp
80020db8:	0000                	c.unimp
80020dba:	0000                	c.unimp
80020dbc:	0000                	c.unimp
80020dbe:	0000                	c.unimp
80020dc0:	0000                	c.unimp
80020dc2:	0000                	c.unimp
80020dc4:	0000                	c.unimp
80020dc6:	0000                	c.unimp
80020dc8:	0000                	c.unimp
80020dca:	0000                	c.unimp
80020dcc:	0000                	c.unimp
80020dce:	0000                	c.unimp
80020dd0:	0000                	c.unimp
80020dd2:	0000                	c.unimp
80020dd4:	0000                	c.unimp
80020dd6:	0000                	c.unimp
80020dd8:	0000                	c.unimp
80020dda:	0000                	c.unimp
80020ddc:	0000                	c.unimp
80020dde:	0000                	c.unimp
80020de0:	0000                	c.unimp
80020de2:	0000                	c.unimp
80020de4:	0000                	c.unimp
80020de6:	0000                	c.unimp
80020de8:	0000                	c.unimp
80020dea:	0000                	c.unimp
80020dec:	0000                	c.unimp
80020dee:	0000                	c.unimp
80020df0:	0000                	c.unimp
80020df2:	0000                	c.unimp
80020df4:	0000                	c.unimp
80020df6:	0000                	c.unimp
80020df8:	0000                	c.unimp
80020dfa:	0000                	c.unimp
80020dfc:	0000                	c.unimp
80020dfe:	0000                	c.unimp
80020e00:	0000                	c.unimp
80020e02:	0000                	c.unimp
80020e04:	0000                	c.unimp
80020e06:	0000                	c.unimp
80020e08:	0000                	c.unimp
80020e0a:	0000                	c.unimp
80020e0c:	0000                	c.unimp
80020e0e:	0000                	c.unimp
80020e10:	0000                	c.unimp
80020e12:	0000                	c.unimp
80020e14:	0000                	c.unimp
80020e16:	0000                	c.unimp
80020e18:	0000                	c.unimp
80020e1a:	0000                	c.unimp
80020e1c:	0000                	c.unimp
80020e1e:	0000                	c.unimp
80020e20:	0000                	c.unimp
80020e22:	0000                	c.unimp
80020e24:	0000                	c.unimp
80020e26:	0000                	c.unimp
80020e28:	0000                	c.unimp
80020e2a:	0000                	c.unimp
80020e2c:	0000                	c.unimp
80020e2e:	0000                	c.unimp
80020e30:	0000                	c.unimp
80020e32:	0000                	c.unimp
80020e34:	0000                	c.unimp
80020e36:	0000                	c.unimp
80020e38:	0000                	c.unimp
80020e3a:	0000                	c.unimp
80020e3c:	0000                	c.unimp
80020e3e:	0000                	c.unimp
80020e40:	0000                	c.unimp
80020e42:	0000                	c.unimp
80020e44:	0000                	c.unimp
80020e46:	0000                	c.unimp
80020e48:	0000                	c.unimp
80020e4a:	0000                	c.unimp
80020e4c:	0000                	c.unimp
80020e4e:	0000                	c.unimp
80020e50:	0000                	c.unimp
80020e52:	0000                	c.unimp
80020e54:	0000                	c.unimp
80020e56:	0000                	c.unimp
80020e58:	0000                	c.unimp
80020e5a:	0000                	c.unimp
80020e5c:	0000                	c.unimp
80020e5e:	0000                	c.unimp
80020e60:	0000                	c.unimp
80020e62:	0000                	c.unimp
80020e64:	0000                	c.unimp
80020e66:	0000                	c.unimp
80020e68:	0000                	c.unimp
80020e6a:	0000                	c.unimp
80020e6c:	0000                	c.unimp
80020e6e:	0000                	c.unimp
80020e70:	0000                	c.unimp
80020e72:	0000                	c.unimp
80020e74:	0000                	c.unimp
80020e76:	0000                	c.unimp
80020e78:	0000                	c.unimp
80020e7a:	0000                	c.unimp
80020e7c:	0000                	c.unimp
80020e7e:	0000                	c.unimp
80020e80:	0000                	c.unimp
80020e82:	0000                	c.unimp
80020e84:	0000                	c.unimp
80020e86:	0000                	c.unimp
80020e88:	0000                	c.unimp
80020e8a:	0000                	c.unimp
80020e8c:	0000                	c.unimp
80020e8e:	0000                	c.unimp
80020e90:	0000                	c.unimp
80020e92:	0000                	c.unimp
80020e94:	0000                	c.unimp
80020e96:	0000                	c.unimp
80020e98:	0000                	c.unimp
80020e9a:	0000                	c.unimp
80020e9c:	0000                	c.unimp
80020e9e:	0000                	c.unimp
80020ea0:	0000                	c.unimp
80020ea2:	0000                	c.unimp
80020ea4:	0000                	c.unimp
80020ea6:	0000                	c.unimp
80020ea8:	0000                	c.unimp
80020eaa:	0000                	c.unimp
80020eac:	0000                	c.unimp
80020eae:	0000                	c.unimp
80020eb0:	0000                	c.unimp
80020eb2:	0000                	c.unimp
80020eb4:	0000                	c.unimp
80020eb6:	0000                	c.unimp
80020eb8:	0000                	c.unimp
80020eba:	0000                	c.unimp
80020ebc:	0000                	c.unimp
80020ebe:	0000                	c.unimp
80020ec0:	0000                	c.unimp
80020ec2:	0000                	c.unimp
80020ec4:	0000                	c.unimp
80020ec6:	0000                	c.unimp
80020ec8:	0000                	c.unimp
80020eca:	0000                	c.unimp
80020ecc:	0000                	c.unimp
80020ece:	0000                	c.unimp
80020ed0:	0000                	c.unimp
80020ed2:	0000                	c.unimp
80020ed4:	0000                	c.unimp
80020ed6:	0000                	c.unimp
80020ed8:	0000                	c.unimp
80020eda:	0000                	c.unimp
80020edc:	0000                	c.unimp
80020ede:	0000                	c.unimp
80020ee0:	0000                	c.unimp
80020ee2:	0000                	c.unimp
80020ee4:	0000                	c.unimp
80020ee6:	0000                	c.unimp
80020ee8:	0000                	c.unimp
80020eea:	0000                	c.unimp
80020eec:	0000                	c.unimp
80020eee:	0000                	c.unimp
80020ef0:	0000                	c.unimp
80020ef2:	0000                	c.unimp
80020ef4:	0000                	c.unimp
80020ef6:	0000                	c.unimp
80020ef8:	0000                	c.unimp
80020efa:	0000                	c.unimp
80020efc:	0000                	c.unimp
80020efe:	0000                	c.unimp
80020f00:	0000                	c.unimp
80020f02:	0000                	c.unimp
80020f04:	0000                	c.unimp
80020f06:	0000                	c.unimp
80020f08:	0000                	c.unimp
80020f0a:	0000                	c.unimp
80020f0c:	0000                	c.unimp
80020f0e:	0000                	c.unimp
80020f10:	0000                	c.unimp
80020f12:	0000                	c.unimp
80020f14:	0000                	c.unimp
80020f16:	0000                	c.unimp
80020f18:	0000                	c.unimp
80020f1a:	0000                	c.unimp
80020f1c:	0000                	c.unimp
80020f1e:	0000                	c.unimp
80020f20:	0000                	c.unimp
80020f22:	0000                	c.unimp
80020f24:	0000                	c.unimp
80020f26:	0000                	c.unimp
80020f28:	0000                	c.unimp
80020f2a:	0000                	c.unimp
80020f2c:	0000                	c.unimp
80020f2e:	0000                	c.unimp
80020f30:	0000                	c.unimp
80020f32:	0000                	c.unimp
80020f34:	0000                	c.unimp
80020f36:	0000                	c.unimp
80020f38:	0000                	c.unimp
80020f3a:	0000                	c.unimp
80020f3c:	0000                	c.unimp
80020f3e:	0000                	c.unimp
80020f40:	0000                	c.unimp
80020f42:	0000                	c.unimp
80020f44:	0000                	c.unimp
80020f46:	0000                	c.unimp
80020f48:	0000                	c.unimp
80020f4a:	0000                	c.unimp
80020f4c:	0000                	c.unimp
80020f4e:	0000                	c.unimp
80020f50:	0000                	c.unimp
80020f52:	0000                	c.unimp
80020f54:	0000                	c.unimp
80020f56:	0000                	c.unimp
80020f58:	0000                	c.unimp
80020f5a:	0000                	c.unimp
80020f5c:	0000                	c.unimp
80020f5e:	0000                	c.unimp
80020f60:	0000                	c.unimp
80020f62:	0000                	c.unimp
80020f64:	0000                	c.unimp
80020f66:	0000                	c.unimp
80020f68:	0000                	c.unimp
80020f6a:	0000                	c.unimp
80020f6c:	0000                	c.unimp
80020f6e:	0000                	c.unimp
80020f70:	0000                	c.unimp
80020f72:	0000                	c.unimp
80020f74:	0000                	c.unimp
80020f76:	0000                	c.unimp
80020f78:	0000                	c.unimp
80020f7a:	0000                	c.unimp
80020f7c:	0000                	c.unimp
80020f7e:	0000                	c.unimp
80020f80:	0000                	c.unimp
80020f82:	0000                	c.unimp
80020f84:	0000                	c.unimp
80020f86:	0000                	c.unimp
80020f88:	0000                	c.unimp
80020f8a:	0000                	c.unimp
80020f8c:	0000                	c.unimp
80020f8e:	0000                	c.unimp
80020f90:	0000                	c.unimp
80020f92:	0000                	c.unimp
80020f94:	0000                	c.unimp
80020f96:	0000                	c.unimp
80020f98:	0000                	c.unimp
80020f9a:	0000                	c.unimp
80020f9c:	0000                	c.unimp
80020f9e:	0000                	c.unimp
80020fa0:	0000                	c.unimp
80020fa2:	0000                	c.unimp
80020fa4:	0000                	c.unimp
80020fa6:	0000                	c.unimp
80020fa8:	0000                	c.unimp
80020faa:	0000                	c.unimp
80020fac:	0000                	c.unimp
80020fae:	0000                	c.unimp
80020fb0:	0000                	c.unimp
80020fb2:	0000                	c.unimp
80020fb4:	0000                	c.unimp
80020fb6:	0000                	c.unimp
80020fb8:	0000                	c.unimp
80020fba:	0000                	c.unimp
80020fbc:	0000                	c.unimp
80020fbe:	0000                	c.unimp
80020fc0:	0000                	c.unimp
80020fc2:	0000                	c.unimp
80020fc4:	0000                	c.unimp
80020fc6:	0000                	c.unimp
80020fc8:	0000                	c.unimp
80020fca:	0000                	c.unimp
80020fcc:	0000                	c.unimp
80020fce:	0000                	c.unimp
80020fd0:	0000                	c.unimp
80020fd2:	0000                	c.unimp
80020fd4:	0000                	c.unimp
80020fd6:	0000                	c.unimp
80020fd8:	0000                	c.unimp
80020fda:	0000                	c.unimp
80020fdc:	0000                	c.unimp
80020fde:	0000                	c.unimp
80020fe0:	0000                	c.unimp
80020fe2:	0000                	c.unimp
80020fe4:	0000                	c.unimp
80020fe6:	0000                	c.unimp
80020fe8:	0000                	c.unimp
80020fea:	0000                	c.unimp
80020fec:	0000                	c.unimp
80020fee:	0000                	c.unimp
80020ff0:	0000                	c.unimp
80020ff2:	0000                	c.unimp
80020ff4:	0000                	c.unimp
80020ff6:	0000                	c.unimp
80020ff8:	0000                	c.unimp
80020ffa:	0000                	c.unimp
80020ffc:	0000                	c.unimp
80020ffe:	0000                	c.unimp
80021000:	0000                	c.unimp
80021002:	0000                	c.unimp
80021004:	0000                	c.unimp
80021006:	0000                	c.unimp
80021008:	0000                	c.unimp
8002100a:	0000                	c.unimp
8002100c:	0000                	c.unimp
8002100e:	0000                	c.unimp
80021010:	0000                	c.unimp
80021012:	0000                	c.unimp
80021014:	0000                	c.unimp
80021016:	0000                	c.unimp
80021018:	0000                	c.unimp
8002101a:	0000                	c.unimp
8002101c:	0000                	c.unimp
8002101e:	0000                	c.unimp
80021020:	0000                	c.unimp
80021022:	0000                	c.unimp
80021024:	0000                	c.unimp
80021026:	0000                	c.unimp
80021028:	0000                	c.unimp
8002102a:	0000                	c.unimp
8002102c:	0000                	c.unimp
8002102e:	0000                	c.unimp
80021030:	0000                	c.unimp
80021032:	0000                	c.unimp
80021034:	0000                	c.unimp
80021036:	0000                	c.unimp
80021038:	0000                	c.unimp
8002103a:	0000                	c.unimp
8002103c:	0000                	c.unimp
8002103e:	0000                	c.unimp
80021040:	0000                	c.unimp
80021042:	0000                	c.unimp
80021044:	0000                	c.unimp
80021046:	0000                	c.unimp
80021048:	0000                	c.unimp
8002104a:	0000                	c.unimp
8002104c:	0000                	c.unimp
8002104e:	0000                	c.unimp
80021050:	0000                	c.unimp
80021052:	0000                	c.unimp
80021054:	0000                	c.unimp
80021056:	0000                	c.unimp
80021058:	0000                	c.unimp
8002105a:	0000                	c.unimp
8002105c:	0000                	c.unimp
8002105e:	0000                	c.unimp
80021060:	0000                	c.unimp
80021062:	0000                	c.unimp
80021064:	0000                	c.unimp
80021066:	0000                	c.unimp
80021068:	0000                	c.unimp
8002106a:	0000                	c.unimp
8002106c:	0000                	c.unimp
8002106e:	0000                	c.unimp
80021070:	0000                	c.unimp
80021072:	0000                	c.unimp
80021074:	0000                	c.unimp
80021076:	0000                	c.unimp
80021078:	0000                	c.unimp
8002107a:	0000                	c.unimp
8002107c:	0000                	c.unimp
8002107e:	0000                	c.unimp
80021080:	0000                	c.unimp
80021082:	0000                	c.unimp
80021084:	0000                	c.unimp
80021086:	0000                	c.unimp
80021088:	0000                	c.unimp
8002108a:	0000                	c.unimp
8002108c:	0000                	c.unimp
8002108e:	0000                	c.unimp
80021090:	0000                	c.unimp
80021092:	0000                	c.unimp
80021094:	0000                	c.unimp
80021096:	0000                	c.unimp
80021098:	0000                	c.unimp
8002109a:	0000                	c.unimp
8002109c:	0000                	c.unimp
8002109e:	0000                	c.unimp
800210a0:	0000                	c.unimp
800210a2:	0000                	c.unimp
800210a4:	0000                	c.unimp
800210a6:	0000                	c.unimp
800210a8:	0000                	c.unimp
800210aa:	0000                	c.unimp
800210ac:	0000                	c.unimp
800210ae:	0000                	c.unimp
800210b0:	0000                	c.unimp
800210b2:	0000                	c.unimp
800210b4:	0000                	c.unimp
800210b6:	0000                	c.unimp
800210b8:	0000                	c.unimp
800210ba:	0000                	c.unimp
800210bc:	0000                	c.unimp
800210be:	0000                	c.unimp
800210c0:	0000                	c.unimp
800210c2:	0000                	c.unimp
800210c4:	0000                	c.unimp
800210c6:	0000                	c.unimp
800210c8:	0000                	c.unimp
800210ca:	0000                	c.unimp
800210cc:	0000                	c.unimp
800210ce:	0000                	c.unimp
800210d0:	0000                	c.unimp
800210d2:	0000                	c.unimp
800210d4:	0000                	c.unimp
800210d6:	0000                	c.unimp
800210d8:	0000                	c.unimp
800210da:	0000                	c.unimp
800210dc:	0000                	c.unimp
800210de:	0000                	c.unimp
800210e0:	0000                	c.unimp
800210e2:	0000                	c.unimp
800210e4:	0000                	c.unimp
800210e6:	0000                	c.unimp
800210e8:	0000                	c.unimp
800210ea:	0000                	c.unimp
800210ec:	0000                	c.unimp
800210ee:	0000                	c.unimp
800210f0:	0000                	c.unimp
800210f2:	0000                	c.unimp
800210f4:	0000                	c.unimp
800210f6:	0000                	c.unimp
800210f8:	0000                	c.unimp
800210fa:	0000                	c.unimp
800210fc:	0000                	c.unimp
800210fe:	0000                	c.unimp
80021100:	0000                	c.unimp
80021102:	0000                	c.unimp
80021104:	0000                	c.unimp
80021106:	0000                	c.unimp
80021108:	0000                	c.unimp
8002110a:	0000                	c.unimp
8002110c:	0000                	c.unimp
8002110e:	0000                	c.unimp
80021110:	0000                	c.unimp
80021112:	0000                	c.unimp
80021114:	0000                	c.unimp
80021116:	0000                	c.unimp
80021118:	0000                	c.unimp
8002111a:	0000                	c.unimp
8002111c:	0000                	c.unimp
8002111e:	0000                	c.unimp
80021120:	0000                	c.unimp
80021122:	0000                	c.unimp
80021124:	0000                	c.unimp
80021126:	0000                	c.unimp
80021128:	0000                	c.unimp
8002112a:	0000                	c.unimp
8002112c:	0000                	c.unimp
8002112e:	0000                	c.unimp
80021130:	0000                	c.unimp
80021132:	0000                	c.unimp
80021134:	0000                	c.unimp
80021136:	0000                	c.unimp
80021138:	0000                	c.unimp
8002113a:	0000                	c.unimp
8002113c:	0000                	c.unimp
8002113e:	0000                	c.unimp
80021140:	0000                	c.unimp
80021142:	0000                	c.unimp
80021144:	0000                	c.unimp
80021146:	0000                	c.unimp
80021148:	0000                	c.unimp
8002114a:	0000                	c.unimp
8002114c:	0000                	c.unimp
8002114e:	0000                	c.unimp
80021150:	0000                	c.unimp
80021152:	0000                	c.unimp
80021154:	0000                	c.unimp
80021156:	0000                	c.unimp
80021158:	0000                	c.unimp
8002115a:	0000                	c.unimp
8002115c:	0000                	c.unimp
8002115e:	0000                	c.unimp
80021160:	0000                	c.unimp
80021162:	0000                	c.unimp
80021164:	0000                	c.unimp
80021166:	0000                	c.unimp
80021168:	0000                	c.unimp
8002116a:	0000                	c.unimp
8002116c:	0000                	c.unimp
8002116e:	0000                	c.unimp
80021170:	0000                	c.unimp
80021172:	0000                	c.unimp
80021174:	0000                	c.unimp
80021176:	0000                	c.unimp
80021178:	0000                	c.unimp
8002117a:	0000                	c.unimp
8002117c:	0000                	c.unimp
8002117e:	0000                	c.unimp
80021180:	0000                	c.unimp
80021182:	0000                	c.unimp
80021184:	0000                	c.unimp
80021186:	0000                	c.unimp
80021188:	0000                	c.unimp
8002118a:	0000                	c.unimp
8002118c:	0000                	c.unimp
8002118e:	0000                	c.unimp
80021190:	0000                	c.unimp
80021192:	0000                	c.unimp
80021194:	0000                	c.unimp
80021196:	0000                	c.unimp
80021198:	0000                	c.unimp
8002119a:	0000                	c.unimp
8002119c:	0000                	c.unimp
8002119e:	0000                	c.unimp
800211a0:	0000                	c.unimp
800211a2:	0000                	c.unimp
800211a4:	0000                	c.unimp
800211a6:	0000                	c.unimp
800211a8:	0000                	c.unimp
800211aa:	0000                	c.unimp
800211ac:	0000                	c.unimp
800211ae:	0000                	c.unimp
800211b0:	0000                	c.unimp
800211b2:	0000                	c.unimp
800211b4:	0000                	c.unimp
800211b6:	0000                	c.unimp
800211b8:	0000                	c.unimp
800211ba:	0000                	c.unimp
800211bc:	0000                	c.unimp
800211be:	0000                	c.unimp
800211c0:	0000                	c.unimp
800211c2:	0000                	c.unimp
800211c4:	0000                	c.unimp
800211c6:	0000                	c.unimp
800211c8:	0000                	c.unimp
800211ca:	0000                	c.unimp
800211cc:	0000                	c.unimp
800211ce:	0000                	c.unimp
800211d0:	0000                	c.unimp
800211d2:	0000                	c.unimp
800211d4:	0000                	c.unimp
800211d6:	0000                	c.unimp
800211d8:	0000                	c.unimp
800211da:	0000                	c.unimp
800211dc:	0000                	c.unimp
800211de:	0000                	c.unimp
800211e0:	0000                	c.unimp
800211e2:	0000                	c.unimp
800211e4:	0000                	c.unimp
800211e6:	0000                	c.unimp
800211e8:	0000                	c.unimp
800211ea:	0000                	c.unimp
800211ec:	0000                	c.unimp
800211ee:	0000                	c.unimp
800211f0:	0000                	c.unimp
800211f2:	0000                	c.unimp
800211f4:	0000                	c.unimp
800211f6:	0000                	c.unimp
800211f8:	0000                	c.unimp
800211fa:	0000                	c.unimp
800211fc:	0000                	c.unimp
800211fe:	0000                	c.unimp
80021200:	0000                	c.unimp
80021202:	0000                	c.unimp
80021204:	0000                	c.unimp
80021206:	0000                	c.unimp
80021208:	0000                	c.unimp
8002120a:	0000                	c.unimp
8002120c:	0000                	c.unimp
8002120e:	0000                	c.unimp
80021210:	0000                	c.unimp
80021212:	0000                	c.unimp
80021214:	0000                	c.unimp
80021216:	0000                	c.unimp
80021218:	0000                	c.unimp
8002121a:	0000                	c.unimp
8002121c:	0000                	c.unimp
8002121e:	0000                	c.unimp
80021220:	0000                	c.unimp
80021222:	0000                	c.unimp
80021224:	0000                	c.unimp
80021226:	0000                	c.unimp
80021228:	0000                	c.unimp
8002122a:	0000                	c.unimp
8002122c:	0000                	c.unimp
8002122e:	0000                	c.unimp
80021230:	0000                	c.unimp
80021232:	0000                	c.unimp
80021234:	0000                	c.unimp
80021236:	0000                	c.unimp
80021238:	0000                	c.unimp
8002123a:	0000                	c.unimp
8002123c:	0000                	c.unimp
8002123e:	0000                	c.unimp
80021240:	0000                	c.unimp
80021242:	0000                	c.unimp
80021244:	0000                	c.unimp
80021246:	0000                	c.unimp
80021248:	0000                	c.unimp
8002124a:	0000                	c.unimp
8002124c:	0000                	c.unimp
8002124e:	0000                	c.unimp
80021250:	0000                	c.unimp
80021252:	0000                	c.unimp
80021254:	0000                	c.unimp
80021256:	0000                	c.unimp
80021258:	0000                	c.unimp
8002125a:	0000                	c.unimp
8002125c:	0000                	c.unimp
8002125e:	0000                	c.unimp
80021260:	0000                	c.unimp
80021262:	0000                	c.unimp
80021264:	0000                	c.unimp
80021266:	0000                	c.unimp
80021268:	0000                	c.unimp
8002126a:	0000                	c.unimp
8002126c:	0000                	c.unimp
8002126e:	0000                	c.unimp
80021270:	0000                	c.unimp
80021272:	0000                	c.unimp
80021274:	0000                	c.unimp
80021276:	0000                	c.unimp
80021278:	0000                	c.unimp
8002127a:	0000                	c.unimp
8002127c:	0000                	c.unimp
8002127e:	0000                	c.unimp
80021280:	0000                	c.unimp
80021282:	0000                	c.unimp
80021284:	0000                	c.unimp
80021286:	0000                	c.unimp
80021288:	0000                	c.unimp
8002128a:	0000                	c.unimp
8002128c:	0000                	c.unimp
8002128e:	0000                	c.unimp
80021290:	0000                	c.unimp
80021292:	0000                	c.unimp
80021294:	0000                	c.unimp
80021296:	0000                	c.unimp
80021298:	0000                	c.unimp
8002129a:	0000                	c.unimp
8002129c:	0000                	c.unimp
8002129e:	0000                	c.unimp
800212a0:	0000                	c.unimp
800212a2:	0000                	c.unimp
800212a4:	0000                	c.unimp
800212a6:	0000                	c.unimp
800212a8:	0000                	c.unimp
800212aa:	0000                	c.unimp
800212ac:	0000                	c.unimp
800212ae:	0000                	c.unimp
800212b0:	0000                	c.unimp
800212b2:	0000                	c.unimp
800212b4:	0000                	c.unimp
800212b6:	0000                	c.unimp
800212b8:	0000                	c.unimp
800212ba:	0000                	c.unimp
800212bc:	0000                	c.unimp
800212be:	0000                	c.unimp
800212c0:	0000                	c.unimp
800212c2:	0000                	c.unimp
800212c4:	0000                	c.unimp
800212c6:	0000                	c.unimp
800212c8:	0000                	c.unimp
800212ca:	0000                	c.unimp
800212cc:	0000                	c.unimp
800212ce:	0000                	c.unimp
800212d0:	0000                	c.unimp
800212d2:	0000                	c.unimp
800212d4:	0000                	c.unimp
800212d6:	0000                	c.unimp
800212d8:	0000                	c.unimp
800212da:	0000                	c.unimp
800212dc:	0000                	c.unimp
800212de:	0000                	c.unimp
800212e0:	0000                	c.unimp
800212e2:	0000                	c.unimp
800212e4:	0000                	c.unimp
800212e6:	0000                	c.unimp
800212e8:	0000                	c.unimp
800212ea:	0000                	c.unimp
800212ec:	0000                	c.unimp
800212ee:	0000                	c.unimp
800212f0:	0000                	c.unimp
800212f2:	0000                	c.unimp
800212f4:	0000                	c.unimp
800212f6:	0000                	c.unimp
800212f8:	0000                	c.unimp
800212fa:	0000                	c.unimp
800212fc:	0000                	c.unimp
800212fe:	0000                	c.unimp
80021300:	0000                	c.unimp
80021302:	0000                	c.unimp
80021304:	0000                	c.unimp
80021306:	0000                	c.unimp
80021308:	0000                	c.unimp
8002130a:	0000                	c.unimp
8002130c:	0000                	c.unimp
8002130e:	0000                	c.unimp
80021310:	0000                	c.unimp
80021312:	0000                	c.unimp
80021314:	0000                	c.unimp
80021316:	0000                	c.unimp
80021318:	0000                	c.unimp
8002131a:	0000                	c.unimp
8002131c:	0000                	c.unimp
8002131e:	0000                	c.unimp
80021320:	0000                	c.unimp
80021322:	0000                	c.unimp
80021324:	0000                	c.unimp
80021326:	0000                	c.unimp
80021328:	0000                	c.unimp
8002132a:	0000                	c.unimp
8002132c:	0000                	c.unimp
8002132e:	0000                	c.unimp
80021330:	0000                	c.unimp
80021332:	0000                	c.unimp
80021334:	0000                	c.unimp
80021336:	0000                	c.unimp
80021338:	0000                	c.unimp
8002133a:	0000                	c.unimp
8002133c:	0000                	c.unimp
8002133e:	0000                	c.unimp
80021340:	0000                	c.unimp
80021342:	0000                	c.unimp
80021344:	0000                	c.unimp
80021346:	0000                	c.unimp
80021348:	0000                	c.unimp
8002134a:	0000                	c.unimp
8002134c:	0000                	c.unimp
8002134e:	0000                	c.unimp
80021350:	0000                	c.unimp
80021352:	0000                	c.unimp
80021354:	0000                	c.unimp
80021356:	0000                	c.unimp
80021358:	0000                	c.unimp
8002135a:	0000                	c.unimp
8002135c:	0000                	c.unimp
8002135e:	0000                	c.unimp
80021360:	0000                	c.unimp
80021362:	0000                	c.unimp
80021364:	0000                	c.unimp
80021366:	0000                	c.unimp
80021368:	0000                	c.unimp
8002136a:	0000                	c.unimp
8002136c:	0000                	c.unimp
8002136e:	0000                	c.unimp
80021370:	0000                	c.unimp
80021372:	0000                	c.unimp
80021374:	0000                	c.unimp
80021376:	0000                	c.unimp
80021378:	0000                	c.unimp
8002137a:	0000                	c.unimp
8002137c:	0000                	c.unimp
8002137e:	0000                	c.unimp
80021380:	0000                	c.unimp
80021382:	0000                	c.unimp
80021384:	0000                	c.unimp
80021386:	0000                	c.unimp
80021388:	0000                	c.unimp
8002138a:	0000                	c.unimp
8002138c:	0000                	c.unimp
8002138e:	0000                	c.unimp
80021390:	0000                	c.unimp
80021392:	0000                	c.unimp
80021394:	0000                	c.unimp
80021396:	0000                	c.unimp
80021398:	0000                	c.unimp
8002139a:	0000                	c.unimp
8002139c:	0000                	c.unimp
8002139e:	0000                	c.unimp
800213a0:	0000                	c.unimp
800213a2:	0000                	c.unimp
800213a4:	0000                	c.unimp
800213a6:	0000                	c.unimp
800213a8:	0000                	c.unimp
800213aa:	0000                	c.unimp
800213ac:	0000                	c.unimp
800213ae:	0000                	c.unimp
800213b0:	0000                	c.unimp
800213b2:	0000                	c.unimp
800213b4:	0000                	c.unimp
800213b6:	0000                	c.unimp
800213b8:	0000                	c.unimp
800213ba:	0000                	c.unimp
800213bc:	0000                	c.unimp
800213be:	0000                	c.unimp
800213c0:	0000                	c.unimp
800213c2:	0000                	c.unimp
800213c4:	0000                	c.unimp
800213c6:	0000                	c.unimp
800213c8:	0000                	c.unimp
800213ca:	0000                	c.unimp
800213cc:	0000                	c.unimp
800213ce:	0000                	c.unimp
800213d0:	0000                	c.unimp
800213d2:	0000                	c.unimp
800213d4:	0000                	c.unimp
800213d6:	0000                	c.unimp
800213d8:	0000                	c.unimp
800213da:	0000                	c.unimp
800213dc:	0000                	c.unimp
800213de:	0000                	c.unimp
800213e0:	0000                	c.unimp
800213e2:	0000                	c.unimp
800213e4:	0000                	c.unimp
800213e6:	0000                	c.unimp
800213e8:	0000                	c.unimp
800213ea:	0000                	c.unimp
800213ec:	0000                	c.unimp
800213ee:	0000                	c.unimp
800213f0:	0000                	c.unimp
800213f2:	0000                	c.unimp
800213f4:	0000                	c.unimp
800213f6:	0000                	c.unimp
800213f8:	0000                	c.unimp
800213fa:	0000                	c.unimp
800213fc:	0000                	c.unimp
800213fe:	0000                	c.unimp
80021400:	0000                	c.unimp
80021402:	0000                	c.unimp
80021404:	0000                	c.unimp
80021406:	0000                	c.unimp
80021408:	0000                	c.unimp
8002140a:	0000                	c.unimp
8002140c:	0000                	c.unimp
8002140e:	0000                	c.unimp
80021410:	0000                	c.unimp
80021412:	0000                	c.unimp
80021414:	0000                	c.unimp
80021416:	0000                	c.unimp
80021418:	0000                	c.unimp
8002141a:	0000                	c.unimp
8002141c:	0000                	c.unimp
8002141e:	0000                	c.unimp
80021420:	0000                	c.unimp
80021422:	0000                	c.unimp
80021424:	0000                	c.unimp
80021426:	0000                	c.unimp
80021428:	0000                	c.unimp
8002142a:	0000                	c.unimp
8002142c:	0000                	c.unimp
8002142e:	0000                	c.unimp
80021430:	0000                	c.unimp
80021432:	0000                	c.unimp
80021434:	0000                	c.unimp
80021436:	0000                	c.unimp
80021438:	0000                	c.unimp
8002143a:	0000                	c.unimp
8002143c:	0000                	c.unimp
8002143e:	0000                	c.unimp
80021440:	0000                	c.unimp
80021442:	0000                	c.unimp
80021444:	0000                	c.unimp
80021446:	0000                	c.unimp
80021448:	0000                	c.unimp
8002144a:	0000                	c.unimp
8002144c:	0000                	c.unimp
8002144e:	0000                	c.unimp
80021450:	0000                	c.unimp
80021452:	0000                	c.unimp
80021454:	0000                	c.unimp
80021456:	0000                	c.unimp
80021458:	0000                	c.unimp
8002145a:	0000                	c.unimp
8002145c:	0000                	c.unimp
8002145e:	0000                	c.unimp
80021460:	0000                	c.unimp
80021462:	0000                	c.unimp
80021464:	0000                	c.unimp
80021466:	0000                	c.unimp
80021468:	0000                	c.unimp
8002146a:	0000                	c.unimp
8002146c:	0000                	c.unimp
8002146e:	0000                	c.unimp
80021470:	0000                	c.unimp
80021472:	0000                	c.unimp
80021474:	0000                	c.unimp
80021476:	0000                	c.unimp
80021478:	0000                	c.unimp
8002147a:	0000                	c.unimp
8002147c:	0000                	c.unimp
8002147e:	0000                	c.unimp
80021480:	0000                	c.unimp
80021482:	0000                	c.unimp
80021484:	0000                	c.unimp
80021486:	0000                	c.unimp
80021488:	0000                	c.unimp
8002148a:	0000                	c.unimp
8002148c:	0000                	c.unimp
8002148e:	0000                	c.unimp
80021490:	0000                	c.unimp
80021492:	0000                	c.unimp
80021494:	0000                	c.unimp
80021496:	0000                	c.unimp
80021498:	0000                	c.unimp
8002149a:	0000                	c.unimp
8002149c:	0000                	c.unimp
8002149e:	0000                	c.unimp
800214a0:	0000                	c.unimp
800214a2:	0000                	c.unimp
800214a4:	0000                	c.unimp
800214a6:	0000                	c.unimp
800214a8:	0000                	c.unimp
800214aa:	0000                	c.unimp
800214ac:	0000                	c.unimp
800214ae:	0000                	c.unimp
800214b0:	0000                	c.unimp
800214b2:	0000                	c.unimp
800214b4:	0000                	c.unimp
800214b6:	0000                	c.unimp
800214b8:	0000                	c.unimp
800214ba:	0000                	c.unimp
800214bc:	0000                	c.unimp
800214be:	0000                	c.unimp
800214c0:	0000                	c.unimp
800214c2:	0000                	c.unimp
800214c4:	0000                	c.unimp
800214c6:	0000                	c.unimp
800214c8:	0000                	c.unimp
800214ca:	0000                	c.unimp
800214cc:	0000                	c.unimp
800214ce:	0000                	c.unimp
800214d0:	0000                	c.unimp
800214d2:	0000                	c.unimp
800214d4:	0000                	c.unimp
800214d6:	0000                	c.unimp
800214d8:	0000                	c.unimp
800214da:	0000                	c.unimp
800214dc:	0000                	c.unimp
800214de:	0000                	c.unimp
800214e0:	0000                	c.unimp
800214e2:	0000                	c.unimp
800214e4:	0000                	c.unimp
800214e6:	0000                	c.unimp
800214e8:	0000                	c.unimp
800214ea:	0000                	c.unimp
800214ec:	0000                	c.unimp
800214ee:	0000                	c.unimp
800214f0:	0000                	c.unimp
800214f2:	0000                	c.unimp
800214f4:	0000                	c.unimp
800214f6:	0000                	c.unimp
800214f8:	0000                	c.unimp
800214fa:	0000                	c.unimp
800214fc:	0000                	c.unimp
800214fe:	0000                	c.unimp
80021500:	0000                	c.unimp
80021502:	0000                	c.unimp
80021504:	0000                	c.unimp
80021506:	0000                	c.unimp
80021508:	0000                	c.unimp
8002150a:	0000                	c.unimp
8002150c:	0000                	c.unimp
8002150e:	0000                	c.unimp
80021510:	0000                	c.unimp
80021512:	0000                	c.unimp
80021514:	0000                	c.unimp
80021516:	0000                	c.unimp
80021518:	0000                	c.unimp
8002151a:	0000                	c.unimp
8002151c:	0000                	c.unimp
8002151e:	0000                	c.unimp
80021520:	0000                	c.unimp
80021522:	0000                	c.unimp
80021524:	0000                	c.unimp
80021526:	0000                	c.unimp
80021528:	0000                	c.unimp
8002152a:	0000                	c.unimp
8002152c:	0000                	c.unimp
8002152e:	0000                	c.unimp
80021530:	0000                	c.unimp
80021532:	0000                	c.unimp
80021534:	0000                	c.unimp
80021536:	0000                	c.unimp
80021538:	0000                	c.unimp
8002153a:	0000                	c.unimp
8002153c:	0000                	c.unimp
8002153e:	0000                	c.unimp
80021540:	0000                	c.unimp
80021542:	0000                	c.unimp
80021544:	0000                	c.unimp
80021546:	0000                	c.unimp
80021548:	0000                	c.unimp
8002154a:	0000                	c.unimp
8002154c:	0000                	c.unimp
8002154e:	0000                	c.unimp
80021550:	0000                	c.unimp
80021552:	0000                	c.unimp
80021554:	0000                	c.unimp
80021556:	0000                	c.unimp
80021558:	0000                	c.unimp
8002155a:	0000                	c.unimp
8002155c:	0000                	c.unimp
8002155e:	0000                	c.unimp
80021560:	0000                	c.unimp
80021562:	0000                	c.unimp
80021564:	0000                	c.unimp
80021566:	0000                	c.unimp
80021568:	0000                	c.unimp
8002156a:	0000                	c.unimp
8002156c:	0000                	c.unimp
8002156e:	0000                	c.unimp
80021570:	0000                	c.unimp
80021572:	0000                	c.unimp
80021574:	0000                	c.unimp
80021576:	0000                	c.unimp
80021578:	0000                	c.unimp
8002157a:	0000                	c.unimp
8002157c:	0000                	c.unimp
8002157e:	0000                	c.unimp
80021580:	0000                	c.unimp
80021582:	0000                	c.unimp
80021584:	0000                	c.unimp
80021586:	0000                	c.unimp
80021588:	0000                	c.unimp
8002158a:	0000                	c.unimp
8002158c:	0000                	c.unimp
8002158e:	0000                	c.unimp
80021590:	0000                	c.unimp
80021592:	0000                	c.unimp
80021594:	0000                	c.unimp
80021596:	0000                	c.unimp
80021598:	0000                	c.unimp
8002159a:	0000                	c.unimp
8002159c:	0000                	c.unimp
8002159e:	0000                	c.unimp
800215a0:	0000                	c.unimp
800215a2:	0000                	c.unimp
800215a4:	0000                	c.unimp
800215a6:	0000                	c.unimp
800215a8:	0000                	c.unimp
800215aa:	0000                	c.unimp
800215ac:	0000                	c.unimp
800215ae:	0000                	c.unimp
800215b0:	0000                	c.unimp
800215b2:	0000                	c.unimp
800215b4:	0000                	c.unimp
800215b6:	0000                	c.unimp
800215b8:	0000                	c.unimp
800215ba:	0000                	c.unimp
800215bc:	0000                	c.unimp
800215be:	0000                	c.unimp
800215c0:	0000                	c.unimp
800215c2:	0000                	c.unimp
800215c4:	0000                	c.unimp
800215c6:	0000                	c.unimp
800215c8:	0000                	c.unimp
800215ca:	0000                	c.unimp
800215cc:	0000                	c.unimp
800215ce:	0000                	c.unimp
800215d0:	0000                	c.unimp
800215d2:	0000                	c.unimp
800215d4:	0000                	c.unimp
800215d6:	0000                	c.unimp
800215d8:	0000                	c.unimp
800215da:	0000                	c.unimp
800215dc:	0000                	c.unimp
800215de:	0000                	c.unimp
800215e0:	0000                	c.unimp
800215e2:	0000                	c.unimp
800215e4:	0000                	c.unimp
800215e6:	0000                	c.unimp
800215e8:	0000                	c.unimp
800215ea:	0000                	c.unimp
800215ec:	0000                	c.unimp
800215ee:	0000                	c.unimp
800215f0:	0000                	c.unimp
800215f2:	0000                	c.unimp
800215f4:	0000                	c.unimp
800215f6:	0000                	c.unimp
800215f8:	0000                	c.unimp
800215fa:	0000                	c.unimp
800215fc:	0000                	c.unimp
800215fe:	0000                	c.unimp
80021600:	0000                	c.unimp
80021602:	0000                	c.unimp
80021604:	0000                	c.unimp
80021606:	0000                	c.unimp
80021608:	0000                	c.unimp
8002160a:	0000                	c.unimp
8002160c:	0000                	c.unimp
8002160e:	0000                	c.unimp
80021610:	0000                	c.unimp
80021612:	0000                	c.unimp
80021614:	0000                	c.unimp
80021616:	0000                	c.unimp
80021618:	0000                	c.unimp
8002161a:	0000                	c.unimp
8002161c:	0000                	c.unimp
8002161e:	0000                	c.unimp
80021620:	0000                	c.unimp
80021622:	0000                	c.unimp
80021624:	0000                	c.unimp
80021626:	0000                	c.unimp
80021628:	0000                	c.unimp
8002162a:	0000                	c.unimp
8002162c:	0000                	c.unimp
8002162e:	0000                	c.unimp
80021630:	0000                	c.unimp
80021632:	0000                	c.unimp
80021634:	0000                	c.unimp
80021636:	0000                	c.unimp
80021638:	0000                	c.unimp
8002163a:	0000                	c.unimp
8002163c:	0000                	c.unimp
8002163e:	0000                	c.unimp
80021640:	0000                	c.unimp
80021642:	0000                	c.unimp
80021644:	0000                	c.unimp
80021646:	0000                	c.unimp
80021648:	0000                	c.unimp
8002164a:	0000                	c.unimp
8002164c:	0000                	c.unimp
8002164e:	0000                	c.unimp
80021650:	0000                	c.unimp
80021652:	0000                	c.unimp
80021654:	0000                	c.unimp
80021656:	0000                	c.unimp
80021658:	0000                	c.unimp
8002165a:	0000                	c.unimp
8002165c:	0000                	c.unimp
8002165e:	0000                	c.unimp
80021660:	0000                	c.unimp
80021662:	0000                	c.unimp
80021664:	0000                	c.unimp
80021666:	0000                	c.unimp
80021668:	0000                	c.unimp
8002166a:	0000                	c.unimp
8002166c:	0000                	c.unimp
8002166e:	0000                	c.unimp
80021670:	0000                	c.unimp
80021672:	0000                	c.unimp
80021674:	0000                	c.unimp
80021676:	0000                	c.unimp
80021678:	0000                	c.unimp
8002167a:	0000                	c.unimp
8002167c:	0000                	c.unimp
8002167e:	0000                	c.unimp
80021680:	0000                	c.unimp
80021682:	0000                	c.unimp
80021684:	0000                	c.unimp
80021686:	0000                	c.unimp
80021688:	0000                	c.unimp
8002168a:	0000                	c.unimp
8002168c:	0000                	c.unimp
8002168e:	0000                	c.unimp
80021690:	0000                	c.unimp
80021692:	0000                	c.unimp
80021694:	0000                	c.unimp
80021696:	0000                	c.unimp
80021698:	0000                	c.unimp
8002169a:	0000                	c.unimp
8002169c:	0000                	c.unimp
8002169e:	0000                	c.unimp
800216a0:	0000                	c.unimp
800216a2:	0000                	c.unimp
800216a4:	0000                	c.unimp
800216a6:	0000                	c.unimp
800216a8:	0000                	c.unimp
800216aa:	0000                	c.unimp
800216ac:	0000                	c.unimp
800216ae:	0000                	c.unimp
800216b0:	0000                	c.unimp
800216b2:	0000                	c.unimp
800216b4:	0000                	c.unimp
800216b6:	0000                	c.unimp
800216b8:	0000                	c.unimp
800216ba:	0000                	c.unimp
800216bc:	0000                	c.unimp
800216be:	0000                	c.unimp
800216c0:	0000                	c.unimp
800216c2:	0000                	c.unimp
800216c4:	0000                	c.unimp
800216c6:	0000                	c.unimp
800216c8:	0000                	c.unimp
800216ca:	0000                	c.unimp
800216cc:	0000                	c.unimp
800216ce:	0000                	c.unimp
800216d0:	0000                	c.unimp
800216d2:	0000                	c.unimp
800216d4:	0000                	c.unimp
800216d6:	0000                	c.unimp
800216d8:	0000                	c.unimp
800216da:	0000                	c.unimp
800216dc:	0000                	c.unimp
800216de:	0000                	c.unimp
800216e0:	0000                	c.unimp
800216e2:	0000                	c.unimp
800216e4:	0000                	c.unimp
800216e6:	0000                	c.unimp
800216e8:	0000                	c.unimp
800216ea:	0000                	c.unimp
800216ec:	0000                	c.unimp
800216ee:	0000                	c.unimp
800216f0:	0000                	c.unimp
800216f2:	0000                	c.unimp
800216f4:	0000                	c.unimp
800216f6:	0000                	c.unimp
800216f8:	0000                	c.unimp
800216fa:	0000                	c.unimp
800216fc:	0000                	c.unimp
800216fe:	0000                	c.unimp
80021700:	0000                	c.unimp
80021702:	0000                	c.unimp
80021704:	0000                	c.unimp
80021706:	0000                	c.unimp
80021708:	0000                	c.unimp
8002170a:	0000                	c.unimp
8002170c:	0000                	c.unimp
8002170e:	0000                	c.unimp
80021710:	0000                	c.unimp
80021712:	0000                	c.unimp
80021714:	0000                	c.unimp
80021716:	0000                	c.unimp
80021718:	0000                	c.unimp
8002171a:	0000                	c.unimp
8002171c:	0000                	c.unimp
8002171e:	0000                	c.unimp
80021720:	0000                	c.unimp
80021722:	0000                	c.unimp
80021724:	0000                	c.unimp
80021726:	0000                	c.unimp
80021728:	0000                	c.unimp
8002172a:	0000                	c.unimp
8002172c:	0000                	c.unimp
8002172e:	0000                	c.unimp
80021730:	0000                	c.unimp
80021732:	0000                	c.unimp
80021734:	0000                	c.unimp
80021736:	0000                	c.unimp
80021738:	0000                	c.unimp
8002173a:	0000                	c.unimp
8002173c:	0000                	c.unimp
8002173e:	0000                	c.unimp
80021740:	0000                	c.unimp
80021742:	0000                	c.unimp
80021744:	0000                	c.unimp
80021746:	0000                	c.unimp
80021748:	0000                	c.unimp
8002174a:	0000                	c.unimp
8002174c:	0000                	c.unimp
8002174e:	0000                	c.unimp
80021750:	0000                	c.unimp
80021752:	0000                	c.unimp
80021754:	0000                	c.unimp
80021756:	0000                	c.unimp
80021758:	0000                	c.unimp
8002175a:	0000                	c.unimp
8002175c:	0000                	c.unimp
8002175e:	0000                	c.unimp
80021760:	0000                	c.unimp
80021762:	0000                	c.unimp
80021764:	0000                	c.unimp
80021766:	0000                	c.unimp
80021768:	0000                	c.unimp
8002176a:	0000                	c.unimp
8002176c:	0000                	c.unimp
8002176e:	0000                	c.unimp
80021770:	0000                	c.unimp
80021772:	0000                	c.unimp
80021774:	0000                	c.unimp
80021776:	0000                	c.unimp
80021778:	0000                	c.unimp
8002177a:	0000                	c.unimp
8002177c:	0000                	c.unimp
8002177e:	0000                	c.unimp
80021780:	0000                	c.unimp
80021782:	0000                	c.unimp
80021784:	0000                	c.unimp
80021786:	0000                	c.unimp
80021788:	0000                	c.unimp
8002178a:	0000                	c.unimp
8002178c:	0000                	c.unimp
8002178e:	0000                	c.unimp
80021790:	0000                	c.unimp
80021792:	0000                	c.unimp
80021794:	0000                	c.unimp
80021796:	0000                	c.unimp
80021798:	0000                	c.unimp
8002179a:	0000                	c.unimp
8002179c:	0000                	c.unimp
8002179e:	0000                	c.unimp
800217a0:	0000                	c.unimp
800217a2:	0000                	c.unimp
800217a4:	0000                	c.unimp
800217a6:	0000                	c.unimp
800217a8:	0000                	c.unimp
800217aa:	0000                	c.unimp
800217ac:	0000                	c.unimp
800217ae:	0000                	c.unimp
800217b0:	0000                	c.unimp
800217b2:	0000                	c.unimp
800217b4:	0000                	c.unimp
800217b6:	0000                	c.unimp
800217b8:	0000                	c.unimp
800217ba:	0000                	c.unimp
800217bc:	0000                	c.unimp
800217be:	0000                	c.unimp
800217c0:	0000                	c.unimp
800217c2:	0000                	c.unimp
800217c4:	0000                	c.unimp
800217c6:	0000                	c.unimp
800217c8:	0000                	c.unimp
800217ca:	0000                	c.unimp
800217cc:	0000                	c.unimp
800217ce:	0000                	c.unimp
800217d0:	0000                	c.unimp
800217d2:	0000                	c.unimp
800217d4:	0000                	c.unimp
800217d6:	0000                	c.unimp
800217d8:	0000                	c.unimp
800217da:	0000                	c.unimp
800217dc:	0000                	c.unimp
800217de:	0000                	c.unimp
800217e0:	0000                	c.unimp
800217e2:	0000                	c.unimp
800217e4:	0000                	c.unimp
800217e6:	0000                	c.unimp
800217e8:	0000                	c.unimp
800217ea:	0000                	c.unimp
800217ec:	0000                	c.unimp
800217ee:	0000                	c.unimp
800217f0:	0000                	c.unimp
800217f2:	0000                	c.unimp
800217f4:	0000                	c.unimp
800217f6:	0000                	c.unimp
800217f8:	0000                	c.unimp
800217fa:	0000                	c.unimp
800217fc:	0000                	c.unimp
800217fe:	0000                	c.unimp
80021800:	0000                	c.unimp
80021802:	0000                	c.unimp
80021804:	0000                	c.unimp
80021806:	0000                	c.unimp
80021808:	0000                	c.unimp
8002180a:	0000                	c.unimp
8002180c:	0000                	c.unimp
8002180e:	0000                	c.unimp
80021810:	0000                	c.unimp
80021812:	0000                	c.unimp
80021814:	0000                	c.unimp
80021816:	0000                	c.unimp
80021818:	0000                	c.unimp
8002181a:	0000                	c.unimp
8002181c:	0000                	c.unimp
8002181e:	0000                	c.unimp
80021820:	0000                	c.unimp
80021822:	0000                	c.unimp
80021824:	0000                	c.unimp
80021826:	0000                	c.unimp
80021828:	0000                	c.unimp
8002182a:	0000                	c.unimp
8002182c:	0000                	c.unimp
8002182e:	0000                	c.unimp
80021830:	0000                	c.unimp
80021832:	0000                	c.unimp
80021834:	0000                	c.unimp
80021836:	0000                	c.unimp
80021838:	0000                	c.unimp
8002183a:	0000                	c.unimp
8002183c:	0000                	c.unimp
8002183e:	0000                	c.unimp
80021840:	0000                	c.unimp
80021842:	0000                	c.unimp
80021844:	0000                	c.unimp
80021846:	0000                	c.unimp
80021848:	0000                	c.unimp
8002184a:	0000                	c.unimp
8002184c:	0000                	c.unimp
8002184e:	0000                	c.unimp
80021850:	0000                	c.unimp
80021852:	0000                	c.unimp
80021854:	0000                	c.unimp
80021856:	0000                	c.unimp
80021858:	0000                	c.unimp
8002185a:	0000                	c.unimp
8002185c:	0000                	c.unimp
8002185e:	0000                	c.unimp
80021860:	0000                	c.unimp
80021862:	0000                	c.unimp
80021864:	0000                	c.unimp
80021866:	0000                	c.unimp
80021868:	0000                	c.unimp
8002186a:	0000                	c.unimp
8002186c:	0000                	c.unimp
8002186e:	0000                	c.unimp
80021870:	0000                	c.unimp
80021872:	0000                	c.unimp
80021874:	0000                	c.unimp
80021876:	0000                	c.unimp
80021878:	0000                	c.unimp
8002187a:	0000                	c.unimp
8002187c:	0000                	c.unimp
8002187e:	0000                	c.unimp
80021880:	0000                	c.unimp
80021882:	0000                	c.unimp
80021884:	0000                	c.unimp
80021886:	0000                	c.unimp
80021888:	0000                	c.unimp
8002188a:	0000                	c.unimp
8002188c:	0000                	c.unimp
8002188e:	0000                	c.unimp
80021890:	0000                	c.unimp
80021892:	0000                	c.unimp
80021894:	0000                	c.unimp
80021896:	0000                	c.unimp
80021898:	0000                	c.unimp
8002189a:	0000                	c.unimp
8002189c:	0000                	c.unimp
8002189e:	0000                	c.unimp
800218a0:	0000                	c.unimp
800218a2:	0000                	c.unimp
800218a4:	0000                	c.unimp
800218a6:	0000                	c.unimp
800218a8:	0000                	c.unimp
800218aa:	0000                	c.unimp
800218ac:	0000                	c.unimp
800218ae:	0000                	c.unimp
800218b0:	0000                	c.unimp
800218b2:	0000                	c.unimp
800218b4:	0000                	c.unimp
800218b6:	0000                	c.unimp
800218b8:	0000                	c.unimp
800218ba:	0000                	c.unimp
800218bc:	0000                	c.unimp
800218be:	0000                	c.unimp
800218c0:	0000                	c.unimp
800218c2:	0000                	c.unimp
800218c4:	0000                	c.unimp
800218c6:	0000                	c.unimp
800218c8:	0000                	c.unimp
800218ca:	0000                	c.unimp
800218cc:	0000                	c.unimp
800218ce:	0000                	c.unimp
800218d0:	0000                	c.unimp
800218d2:	0000                	c.unimp
800218d4:	0000                	c.unimp
800218d6:	0000                	c.unimp
800218d8:	0000                	c.unimp
800218da:	0000                	c.unimp
800218dc:	0000                	c.unimp
800218de:	0000                	c.unimp
800218e0:	0000                	c.unimp
800218e2:	0000                	c.unimp
800218e4:	0000                	c.unimp
800218e6:	0000                	c.unimp
800218e8:	0000                	c.unimp
800218ea:	0000                	c.unimp
800218ec:	0000                	c.unimp
800218ee:	0000                	c.unimp
800218f0:	0000                	c.unimp
800218f2:	0000                	c.unimp
800218f4:	0000                	c.unimp
800218f6:	0000                	c.unimp
800218f8:	0000                	c.unimp
800218fa:	0000                	c.unimp
800218fc:	0000                	c.unimp
800218fe:	0000                	c.unimp
80021900:	0000                	c.unimp
80021902:	0000                	c.unimp
80021904:	0000                	c.unimp
80021906:	0000                	c.unimp
80021908:	0000                	c.unimp
8002190a:	0000                	c.unimp
8002190c:	0000                	c.unimp
8002190e:	0000                	c.unimp
80021910:	0000                	c.unimp
80021912:	0000                	c.unimp
80021914:	0000                	c.unimp
80021916:	0000                	c.unimp
80021918:	0000                	c.unimp
8002191a:	0000                	c.unimp
8002191c:	0000                	c.unimp
8002191e:	0000                	c.unimp
80021920:	0000                	c.unimp
80021922:	0000                	c.unimp
80021924:	0000                	c.unimp
80021926:	0000                	c.unimp
80021928:	0000                	c.unimp
8002192a:	0000                	c.unimp
8002192c:	0000                	c.unimp
8002192e:	0000                	c.unimp
80021930:	0000                	c.unimp
80021932:	0000                	c.unimp
80021934:	0000                	c.unimp
80021936:	0000                	c.unimp
80021938:	0000                	c.unimp
8002193a:	0000                	c.unimp
8002193c:	0000                	c.unimp
8002193e:	0000                	c.unimp
80021940:	0000                	c.unimp
80021942:	0000                	c.unimp
80021944:	0000                	c.unimp
80021946:	0000                	c.unimp
80021948:	0000                	c.unimp
8002194a:	0000                	c.unimp
8002194c:	0000                	c.unimp
8002194e:	0000                	c.unimp
80021950:	0000                	c.unimp
80021952:	0000                	c.unimp
80021954:	0000                	c.unimp
80021956:	0000                	c.unimp
80021958:	0000                	c.unimp
8002195a:	0000                	c.unimp
8002195c:	0000                	c.unimp
8002195e:	0000                	c.unimp
80021960:	0000                	c.unimp
80021962:	0000                	c.unimp
80021964:	0000                	c.unimp
80021966:	0000                	c.unimp
80021968:	0000                	c.unimp
8002196a:	0000                	c.unimp
8002196c:	0000                	c.unimp
8002196e:	0000                	c.unimp
80021970:	0000                	c.unimp
80021972:	0000                	c.unimp
80021974:	0000                	c.unimp
80021976:	0000                	c.unimp
80021978:	0000                	c.unimp
8002197a:	0000                	c.unimp
8002197c:	0000                	c.unimp
8002197e:	0000                	c.unimp
80021980:	0000                	c.unimp
80021982:	0000                	c.unimp
80021984:	0000                	c.unimp
80021986:	0000                	c.unimp
80021988:	0000                	c.unimp
8002198a:	0000                	c.unimp
8002198c:	0000                	c.unimp
8002198e:	0000                	c.unimp
80021990:	0000                	c.unimp
80021992:	0000                	c.unimp
80021994:	0000                	c.unimp
80021996:	0000                	c.unimp
80021998:	0000                	c.unimp
8002199a:	0000                	c.unimp
8002199c:	0000                	c.unimp
8002199e:	0000                	c.unimp
800219a0:	0000                	c.unimp
800219a2:	0000                	c.unimp
800219a4:	0000                	c.unimp
800219a6:	0000                	c.unimp
800219a8:	0000                	c.unimp
800219aa:	0000                	c.unimp
800219ac:	0000                	c.unimp
800219ae:	0000                	c.unimp
800219b0:	0000                	c.unimp
800219b2:	0000                	c.unimp
800219b4:	0000                	c.unimp
800219b6:	0000                	c.unimp
800219b8:	0000                	c.unimp
800219ba:	0000                	c.unimp
800219bc:	0000                	c.unimp
800219be:	0000                	c.unimp
800219c0:	0000                	c.unimp
800219c2:	0000                	c.unimp
800219c4:	0000                	c.unimp
800219c6:	0000                	c.unimp
800219c8:	0000                	c.unimp
800219ca:	0000                	c.unimp
800219cc:	0000                	c.unimp
800219ce:	0000                	c.unimp
800219d0:	0000                	c.unimp
800219d2:	0000                	c.unimp
800219d4:	0000                	c.unimp
800219d6:	0000                	c.unimp
800219d8:	0000                	c.unimp
800219da:	0000                	c.unimp
800219dc:	0000                	c.unimp
800219de:	0000                	c.unimp
800219e0:	0000                	c.unimp
800219e2:	0000                	c.unimp
800219e4:	0000                	c.unimp
800219e6:	0000                	c.unimp
800219e8:	0000                	c.unimp
800219ea:	0000                	c.unimp
800219ec:	0000                	c.unimp
800219ee:	0000                	c.unimp
800219f0:	0000                	c.unimp
800219f2:	0000                	c.unimp
800219f4:	0000                	c.unimp
800219f6:	0000                	c.unimp
800219f8:	0000                	c.unimp
800219fa:	0000                	c.unimp
800219fc:	0000                	c.unimp
800219fe:	0000                	c.unimp
80021a00:	0000                	c.unimp
80021a02:	0000                	c.unimp
80021a04:	0000                	c.unimp
80021a06:	0000                	c.unimp
80021a08:	0000                	c.unimp
80021a0a:	0000                	c.unimp
80021a0c:	0000                	c.unimp
80021a0e:	0000                	c.unimp
80021a10:	0000                	c.unimp
80021a12:	0000                	c.unimp
80021a14:	0000                	c.unimp
80021a16:	0000                	c.unimp
80021a18:	0000                	c.unimp
80021a1a:	0000                	c.unimp
80021a1c:	0000                	c.unimp
80021a1e:	0000                	c.unimp
80021a20:	0000                	c.unimp
80021a22:	0000                	c.unimp
80021a24:	0000                	c.unimp
80021a26:	0000                	c.unimp
80021a28:	0000                	c.unimp
80021a2a:	0000                	c.unimp
80021a2c:	0000                	c.unimp
80021a2e:	0000                	c.unimp
80021a30:	0000                	c.unimp
80021a32:	0000                	c.unimp
80021a34:	0000                	c.unimp
80021a36:	0000                	c.unimp
80021a38:	0000                	c.unimp
80021a3a:	0000                	c.unimp
80021a3c:	0000                	c.unimp
80021a3e:	0000                	c.unimp
80021a40:	0000                	c.unimp
80021a42:	0000                	c.unimp
80021a44:	0000                	c.unimp
80021a46:	0000                	c.unimp
80021a48:	0000                	c.unimp
80021a4a:	0000                	c.unimp
80021a4c:	0000                	c.unimp
80021a4e:	0000                	c.unimp
80021a50:	0000                	c.unimp
80021a52:	0000                	c.unimp
80021a54:	0000                	c.unimp
80021a56:	0000                	c.unimp
80021a58:	0000                	c.unimp
80021a5a:	0000                	c.unimp
80021a5c:	0000                	c.unimp
80021a5e:	0000                	c.unimp
80021a60:	0000                	c.unimp
80021a62:	0000                	c.unimp
80021a64:	0000                	c.unimp
80021a66:	0000                	c.unimp
80021a68:	0000                	c.unimp
80021a6a:	0000                	c.unimp
80021a6c:	0000                	c.unimp
80021a6e:	0000                	c.unimp
80021a70:	0000                	c.unimp
80021a72:	0000                	c.unimp
80021a74:	0000                	c.unimp
80021a76:	0000                	c.unimp
80021a78:	0000                	c.unimp
80021a7a:	0000                	c.unimp
80021a7c:	0000                	c.unimp
80021a7e:	0000                	c.unimp
80021a80:	0000                	c.unimp
80021a82:	0000                	c.unimp
80021a84:	0000                	c.unimp
80021a86:	0000                	c.unimp
80021a88:	0000                	c.unimp
80021a8a:	0000                	c.unimp
80021a8c:	0000                	c.unimp
80021a8e:	0000                	c.unimp
80021a90:	0000                	c.unimp
80021a92:	0000                	c.unimp
80021a94:	0000                	c.unimp
80021a96:	0000                	c.unimp
80021a98:	0000                	c.unimp
80021a9a:	0000                	c.unimp
80021a9c:	0000                	c.unimp
80021a9e:	0000                	c.unimp
80021aa0:	0000                	c.unimp
80021aa2:	0000                	c.unimp
80021aa4:	0000                	c.unimp
80021aa6:	0000                	c.unimp
80021aa8:	0000                	c.unimp
80021aaa:	0000                	c.unimp
80021aac:	0000                	c.unimp
80021aae:	0000                	c.unimp
80021ab0:	0000                	c.unimp
80021ab2:	0000                	c.unimp
80021ab4:	0000                	c.unimp
80021ab6:	0000                	c.unimp
80021ab8:	0000                	c.unimp
80021aba:	0000                	c.unimp
80021abc:	0000                	c.unimp
80021abe:	0000                	c.unimp
80021ac0:	0000                	c.unimp
80021ac2:	0000                	c.unimp
80021ac4:	0000                	c.unimp
80021ac6:	0000                	c.unimp
80021ac8:	0000                	c.unimp
80021aca:	0000                	c.unimp
80021acc:	0000                	c.unimp
80021ace:	0000                	c.unimp
80021ad0:	0000                	c.unimp
80021ad2:	0000                	c.unimp
80021ad4:	0000                	c.unimp
80021ad6:	0000                	c.unimp
80021ad8:	0000                	c.unimp
80021ada:	0000                	c.unimp
80021adc:	0000                	c.unimp
80021ade:	0000                	c.unimp
80021ae0:	0000                	c.unimp
80021ae2:	0000                	c.unimp
80021ae4:	0000                	c.unimp
80021ae6:	0000                	c.unimp
80021ae8:	0000                	c.unimp
80021aea:	0000                	c.unimp
80021aec:	0000                	c.unimp
80021aee:	0000                	c.unimp
80021af0:	0000                	c.unimp
80021af2:	0000                	c.unimp
80021af4:	0000                	c.unimp
80021af6:	0000                	c.unimp
80021af8:	0000                	c.unimp
80021afa:	0000                	c.unimp
80021afc:	0000                	c.unimp
80021afe:	0000                	c.unimp
80021b00:	0000                	c.unimp
80021b02:	0000                	c.unimp
80021b04:	0000                	c.unimp
80021b06:	0000                	c.unimp
80021b08:	0000                	c.unimp
80021b0a:	0000                	c.unimp
80021b0c:	0000                	c.unimp
80021b0e:	0000                	c.unimp
80021b10:	0000                	c.unimp
80021b12:	0000                	c.unimp
80021b14:	0000                	c.unimp
80021b16:	0000                	c.unimp
80021b18:	0000                	c.unimp
80021b1a:	0000                	c.unimp
80021b1c:	0000                	c.unimp
80021b1e:	0000                	c.unimp
80021b20:	0000                	c.unimp
80021b22:	0000                	c.unimp
80021b24:	0000                	c.unimp
80021b26:	0000                	c.unimp
80021b28:	0000                	c.unimp
80021b2a:	0000                	c.unimp
80021b2c:	0000                	c.unimp
80021b2e:	0000                	c.unimp
80021b30:	0000                	c.unimp
80021b32:	0000                	c.unimp
80021b34:	0000                	c.unimp
80021b36:	0000                	c.unimp
80021b38:	0000                	c.unimp
80021b3a:	0000                	c.unimp
80021b3c:	0000                	c.unimp
80021b3e:	0000                	c.unimp
80021b40:	0000                	c.unimp
80021b42:	0000                	c.unimp
80021b44:	0000                	c.unimp
80021b46:	0000                	c.unimp
80021b48:	0000                	c.unimp
80021b4a:	0000                	c.unimp
80021b4c:	0000                	c.unimp
80021b4e:	0000                	c.unimp
80021b50:	0000                	c.unimp
80021b52:	0000                	c.unimp
80021b54:	0000                	c.unimp
80021b56:	0000                	c.unimp
80021b58:	0000                	c.unimp
80021b5a:	0000                	c.unimp
80021b5c:	0000                	c.unimp
80021b5e:	0000                	c.unimp
80021b60:	0000                	c.unimp
80021b62:	0000                	c.unimp
80021b64:	0000                	c.unimp
80021b66:	0000                	c.unimp
80021b68:	0000                	c.unimp
80021b6a:	0000                	c.unimp
80021b6c:	0000                	c.unimp
80021b6e:	0000                	c.unimp
80021b70:	0000                	c.unimp
80021b72:	0000                	c.unimp
80021b74:	0000                	c.unimp
80021b76:	0000                	c.unimp
80021b78:	0000                	c.unimp
80021b7a:	0000                	c.unimp
80021b7c:	0000                	c.unimp
80021b7e:	0000                	c.unimp
80021b80:	0000                	c.unimp
80021b82:	0000                	c.unimp
80021b84:	0000                	c.unimp
80021b86:	0000                	c.unimp
80021b88:	0000                	c.unimp
80021b8a:	0000                	c.unimp
80021b8c:	0000                	c.unimp
80021b8e:	0000                	c.unimp
80021b90:	0000                	c.unimp
80021b92:	0000                	c.unimp
80021b94:	0000                	c.unimp
80021b96:	0000                	c.unimp
80021b98:	0000                	c.unimp
80021b9a:	0000                	c.unimp
80021b9c:	0000                	c.unimp
80021b9e:	0000                	c.unimp
80021ba0:	0000                	c.unimp
80021ba2:	0000                	c.unimp
80021ba4:	0000                	c.unimp
80021ba6:	0000                	c.unimp
80021ba8:	0000                	c.unimp
80021baa:	0000                	c.unimp
80021bac:	0000                	c.unimp
80021bae:	0000                	c.unimp
80021bb0:	0000                	c.unimp
80021bb2:	0000                	c.unimp
80021bb4:	0000                	c.unimp
80021bb6:	0000                	c.unimp
80021bb8:	0000                	c.unimp
80021bba:	0000                	c.unimp
80021bbc:	0000                	c.unimp
80021bbe:	0000                	c.unimp
80021bc0:	0000                	c.unimp
80021bc2:	0000                	c.unimp
80021bc4:	0000                	c.unimp
80021bc6:	0000                	c.unimp
80021bc8:	0000                	c.unimp
80021bca:	0000                	c.unimp
80021bcc:	0000                	c.unimp
80021bce:	0000                	c.unimp
80021bd0:	0000                	c.unimp
80021bd2:	0000                	c.unimp
80021bd4:	0000                	c.unimp
80021bd6:	0000                	c.unimp
80021bd8:	0000                	c.unimp
80021bda:	0000                	c.unimp
80021bdc:	0000                	c.unimp
80021bde:	0000                	c.unimp
80021be0:	0000                	c.unimp
80021be2:	0000                	c.unimp
80021be4:	0000                	c.unimp
80021be6:	0000                	c.unimp
80021be8:	0000                	c.unimp
80021bea:	0000                	c.unimp
80021bec:	0000                	c.unimp
80021bee:	0000                	c.unimp
80021bf0:	0000                	c.unimp
80021bf2:	0000                	c.unimp
80021bf4:	0000                	c.unimp
80021bf6:	0000                	c.unimp
80021bf8:	0000                	c.unimp
80021bfa:	0000                	c.unimp
80021bfc:	0000                	c.unimp
80021bfe:	0000                	c.unimp
80021c00:	0000                	c.unimp
80021c02:	0000                	c.unimp
80021c04:	0000                	c.unimp
80021c06:	0000                	c.unimp
80021c08:	0000                	c.unimp
80021c0a:	0000                	c.unimp
80021c0c:	0000                	c.unimp
80021c0e:	0000                	c.unimp
80021c10:	0000                	c.unimp
80021c12:	0000                	c.unimp
80021c14:	0000                	c.unimp
80021c16:	0000                	c.unimp
80021c18:	0000                	c.unimp
80021c1a:	0000                	c.unimp
80021c1c:	0000                	c.unimp
80021c1e:	0000                	c.unimp
80021c20:	0000                	c.unimp
80021c22:	0000                	c.unimp
80021c24:	0000                	c.unimp
80021c26:	0000                	c.unimp
80021c28:	0000                	c.unimp
80021c2a:	0000                	c.unimp
80021c2c:	0000                	c.unimp
80021c2e:	0000                	c.unimp
80021c30:	0000                	c.unimp
80021c32:	0000                	c.unimp
80021c34:	0000                	c.unimp
80021c36:	0000                	c.unimp
80021c38:	0000                	c.unimp
80021c3a:	0000                	c.unimp
80021c3c:	0000                	c.unimp
80021c3e:	0000                	c.unimp
80021c40:	0000                	c.unimp
80021c42:	0000                	c.unimp
80021c44:	0000                	c.unimp
80021c46:	0000                	c.unimp
80021c48:	0000                	c.unimp
80021c4a:	0000                	c.unimp
80021c4c:	0000                	c.unimp
80021c4e:	0000                	c.unimp
80021c50:	0000                	c.unimp
80021c52:	0000                	c.unimp
80021c54:	0000                	c.unimp
80021c56:	0000                	c.unimp
80021c58:	0000                	c.unimp
80021c5a:	0000                	c.unimp
80021c5c:	0000                	c.unimp
80021c5e:	0000                	c.unimp
80021c60:	0000                	c.unimp
80021c62:	0000                	c.unimp
80021c64:	0000                	c.unimp
80021c66:	0000                	c.unimp
80021c68:	0000                	c.unimp
80021c6a:	0000                	c.unimp
80021c6c:	0000                	c.unimp
80021c6e:	0000                	c.unimp
80021c70:	0000                	c.unimp
80021c72:	0000                	c.unimp
80021c74:	0000                	c.unimp
80021c76:	0000                	c.unimp
80021c78:	0000                	c.unimp
80021c7a:	0000                	c.unimp
80021c7c:	0000                	c.unimp
80021c7e:	0000                	c.unimp
80021c80:	0000                	c.unimp
80021c82:	0000                	c.unimp
80021c84:	0000                	c.unimp
80021c86:	0000                	c.unimp
80021c88:	0000                	c.unimp
80021c8a:	0000                	c.unimp
80021c8c:	0000                	c.unimp
80021c8e:	0000                	c.unimp
80021c90:	0000                	c.unimp
80021c92:	0000                	c.unimp
80021c94:	0000                	c.unimp
80021c96:	0000                	c.unimp
80021c98:	0000                	c.unimp
80021c9a:	0000                	c.unimp
80021c9c:	0000                	c.unimp
80021c9e:	0000                	c.unimp
80021ca0:	0000                	c.unimp
80021ca2:	0000                	c.unimp
80021ca4:	0000                	c.unimp
80021ca6:	0000                	c.unimp
80021ca8:	0000                	c.unimp
80021caa:	0000                	c.unimp
80021cac:	0000                	c.unimp
80021cae:	0000                	c.unimp
80021cb0:	0000                	c.unimp
80021cb2:	0000                	c.unimp
80021cb4:	0000                	c.unimp
80021cb6:	0000                	c.unimp
80021cb8:	0000                	c.unimp
80021cba:	0000                	c.unimp
80021cbc:	0000                	c.unimp
80021cbe:	0000                	c.unimp
80021cc0:	0000                	c.unimp
80021cc2:	0000                	c.unimp
80021cc4:	0000                	c.unimp
80021cc6:	0000                	c.unimp
80021cc8:	0000                	c.unimp
80021cca:	0000                	c.unimp
80021ccc:	0000                	c.unimp
80021cce:	0000                	c.unimp
80021cd0:	0000                	c.unimp
80021cd2:	0000                	c.unimp
80021cd4:	0000                	c.unimp
80021cd6:	0000                	c.unimp
80021cd8:	0000                	c.unimp
80021cda:	0000                	c.unimp
80021cdc:	0000                	c.unimp
80021cde:	0000                	c.unimp
80021ce0:	0000                	c.unimp
80021ce2:	0000                	c.unimp
80021ce4:	0000                	c.unimp
80021ce6:	0000                	c.unimp
80021ce8:	0000                	c.unimp
80021cea:	0000                	c.unimp
80021cec:	0000                	c.unimp
80021cee:	0000                	c.unimp
80021cf0:	0000                	c.unimp
80021cf2:	0000                	c.unimp
80021cf4:	0000                	c.unimp
80021cf6:	0000                	c.unimp
80021cf8:	0000                	c.unimp
80021cfa:	0000                	c.unimp
80021cfc:	0000                	c.unimp
80021cfe:	0000                	c.unimp
80021d00:	0000                	c.unimp
80021d02:	0000                	c.unimp
80021d04:	0000                	c.unimp
80021d06:	0000                	c.unimp
80021d08:	0000                	c.unimp
80021d0a:	0000                	c.unimp
80021d0c:	0000                	c.unimp
80021d0e:	0000                	c.unimp
80021d10:	0000                	c.unimp
80021d12:	0000                	c.unimp
80021d14:	0000                	c.unimp
80021d16:	0000                	c.unimp
80021d18:	0000                	c.unimp
80021d1a:	0000                	c.unimp
80021d1c:	0000                	c.unimp
80021d1e:	0000                	c.unimp
80021d20:	0000                	c.unimp
80021d22:	0000                	c.unimp
80021d24:	0000                	c.unimp
80021d26:	0000                	c.unimp
80021d28:	0000                	c.unimp
80021d2a:	0000                	c.unimp
80021d2c:	0000                	c.unimp
80021d2e:	0000                	c.unimp
80021d30:	0000                	c.unimp
80021d32:	0000                	c.unimp
80021d34:	0000                	c.unimp
80021d36:	0000                	c.unimp
80021d38:	0000                	c.unimp
80021d3a:	0000                	c.unimp
80021d3c:	0000                	c.unimp
80021d3e:	0000                	c.unimp
80021d40:	0000                	c.unimp
80021d42:	0000                	c.unimp
80021d44:	0000                	c.unimp
80021d46:	0000                	c.unimp
80021d48:	0000                	c.unimp
80021d4a:	0000                	c.unimp
80021d4c:	0000                	c.unimp
80021d4e:	0000                	c.unimp
80021d50:	0000                	c.unimp
80021d52:	0000                	c.unimp
80021d54:	0000                	c.unimp
80021d56:	0000                	c.unimp
80021d58:	0000                	c.unimp
80021d5a:	0000                	c.unimp
80021d5c:	0000                	c.unimp
80021d5e:	0000                	c.unimp
80021d60:	0000                	c.unimp
80021d62:	0000                	c.unimp
80021d64:	0000                	c.unimp
80021d66:	0000                	c.unimp
80021d68:	0000                	c.unimp
80021d6a:	0000                	c.unimp
80021d6c:	0000                	c.unimp
80021d6e:	0000                	c.unimp
80021d70:	0000                	c.unimp
80021d72:	0000                	c.unimp
80021d74:	0000                	c.unimp
80021d76:	0000                	c.unimp
80021d78:	0000                	c.unimp
80021d7a:	0000                	c.unimp
80021d7c:	0000                	c.unimp
80021d7e:	0000                	c.unimp
80021d80:	0000                	c.unimp
80021d82:	0000                	c.unimp
80021d84:	0000                	c.unimp
80021d86:	0000                	c.unimp
80021d88:	0000                	c.unimp
80021d8a:	0000                	c.unimp
80021d8c:	0000                	c.unimp
80021d8e:	0000                	c.unimp
80021d90:	0000                	c.unimp
80021d92:	0000                	c.unimp
80021d94:	0000                	c.unimp
80021d96:	0000                	c.unimp
80021d98:	0000                	c.unimp
80021d9a:	0000                	c.unimp
80021d9c:	0000                	c.unimp
80021d9e:	0000                	c.unimp
80021da0:	0000                	c.unimp
80021da2:	0000                	c.unimp
80021da4:	0000                	c.unimp
80021da6:	0000                	c.unimp
80021da8:	0000                	c.unimp
80021daa:	0000                	c.unimp
80021dac:	0000                	c.unimp
80021dae:	0000                	c.unimp
80021db0:	0000                	c.unimp
80021db2:	0000                	c.unimp
80021db4:	0000                	c.unimp
80021db6:	0000                	c.unimp
80021db8:	0000                	c.unimp
80021dba:	0000                	c.unimp
80021dbc:	0000                	c.unimp
80021dbe:	0000                	c.unimp
80021dc0:	0000                	c.unimp
80021dc2:	0000                	c.unimp
80021dc4:	0000                	c.unimp
80021dc6:	0000                	c.unimp
80021dc8:	0000                	c.unimp
80021dca:	0000                	c.unimp
80021dcc:	0000                	c.unimp
80021dce:	0000                	c.unimp
80021dd0:	0000                	c.unimp
80021dd2:	0000                	c.unimp
80021dd4:	0000                	c.unimp
80021dd6:	0000                	c.unimp
80021dd8:	0000                	c.unimp
80021dda:	0000                	c.unimp
80021ddc:	0000                	c.unimp
80021dde:	0000                	c.unimp
80021de0:	0000                	c.unimp
80021de2:	0000                	c.unimp
80021de4:	0000                	c.unimp
80021de6:	0000                	c.unimp
80021de8:	0000                	c.unimp
80021dea:	0000                	c.unimp
80021dec:	0000                	c.unimp
80021dee:	0000                	c.unimp
80021df0:	0000                	c.unimp
80021df2:	0000                	c.unimp
80021df4:	0000                	c.unimp
80021df6:	0000                	c.unimp
80021df8:	0000                	c.unimp
80021dfa:	0000                	c.unimp
80021dfc:	0000                	c.unimp
80021dfe:	0000                	c.unimp
80021e00:	0000                	c.unimp
80021e02:	0000                	c.unimp
80021e04:	0000                	c.unimp
80021e06:	0000                	c.unimp
80021e08:	0000                	c.unimp
80021e0a:	0000                	c.unimp
80021e0c:	0000                	c.unimp
80021e0e:	0000                	c.unimp
80021e10:	0000                	c.unimp
80021e12:	0000                	c.unimp
80021e14:	0000                	c.unimp
80021e16:	0000                	c.unimp
80021e18:	0000                	c.unimp
80021e1a:	0000                	c.unimp
80021e1c:	0000                	c.unimp
80021e1e:	0000                	c.unimp
80021e20:	0000                	c.unimp
80021e22:	0000                	c.unimp
80021e24:	0000                	c.unimp
80021e26:	0000                	c.unimp
80021e28:	0000                	c.unimp
80021e2a:	0000                	c.unimp
80021e2c:	0000                	c.unimp
80021e2e:	0000                	c.unimp
80021e30:	0000                	c.unimp
80021e32:	0000                	c.unimp
80021e34:	0000                	c.unimp
80021e36:	0000                	c.unimp
80021e38:	0000                	c.unimp
80021e3a:	0000                	c.unimp
80021e3c:	0000                	c.unimp
80021e3e:	0000                	c.unimp
80021e40:	0000                	c.unimp
80021e42:	0000                	c.unimp
80021e44:	0000                	c.unimp
80021e46:	0000                	c.unimp
80021e48:	0000                	c.unimp
80021e4a:	0000                	c.unimp
80021e4c:	0000                	c.unimp
80021e4e:	0000                	c.unimp
80021e50:	0000                	c.unimp
80021e52:	0000                	c.unimp
80021e54:	0000                	c.unimp
80021e56:	0000                	c.unimp
80021e58:	0000                	c.unimp
80021e5a:	0000                	c.unimp
80021e5c:	0000                	c.unimp
80021e5e:	0000                	c.unimp
80021e60:	0000                	c.unimp
80021e62:	0000                	c.unimp
80021e64:	0000                	c.unimp
80021e66:	0000                	c.unimp
80021e68:	0000                	c.unimp
80021e6a:	0000                	c.unimp
80021e6c:	0000                	c.unimp
80021e6e:	0000                	c.unimp
80021e70:	0000                	c.unimp
80021e72:	0000                	c.unimp
80021e74:	0000                	c.unimp
80021e76:	0000                	c.unimp
80021e78:	0000                	c.unimp
80021e7a:	0000                	c.unimp
80021e7c:	0000                	c.unimp
80021e7e:	0000                	c.unimp
80021e80:	0000                	c.unimp
80021e82:	0000                	c.unimp
80021e84:	0000                	c.unimp
80021e86:	0000                	c.unimp
80021e88:	0000                	c.unimp
80021e8a:	0000                	c.unimp
80021e8c:	0000                	c.unimp
80021e8e:	0000                	c.unimp
80021e90:	0000                	c.unimp
80021e92:	0000                	c.unimp
80021e94:	0000                	c.unimp
80021e96:	0000                	c.unimp
80021e98:	0000                	c.unimp
80021e9a:	0000                	c.unimp
80021e9c:	0000                	c.unimp
80021e9e:	0000                	c.unimp
80021ea0:	0000                	c.unimp
80021ea2:	0000                	c.unimp
80021ea4:	0000                	c.unimp
80021ea6:	0000                	c.unimp
80021ea8:	0000                	c.unimp
80021eaa:	0000                	c.unimp
80021eac:	0000                	c.unimp
80021eae:	0000                	c.unimp
80021eb0:	0000                	c.unimp
80021eb2:	0000                	c.unimp
80021eb4:	0000                	c.unimp
80021eb6:	0000                	c.unimp
80021eb8:	0000                	c.unimp
80021eba:	0000                	c.unimp
80021ebc:	0000                	c.unimp
80021ebe:	0000                	c.unimp
80021ec0:	0000                	c.unimp
80021ec2:	0000                	c.unimp
80021ec4:	0000                	c.unimp
80021ec6:	0000                	c.unimp
80021ec8:	0000                	c.unimp
80021eca:	0000                	c.unimp
80021ecc:	0000                	c.unimp
80021ece:	0000                	c.unimp
80021ed0:	0000                	c.unimp
80021ed2:	0000                	c.unimp
80021ed4:	0000                	c.unimp
80021ed6:	0000                	c.unimp
80021ed8:	0000                	c.unimp
80021eda:	0000                	c.unimp
80021edc:	0000                	c.unimp
80021ede:	0000                	c.unimp
80021ee0:	0000                	c.unimp
80021ee2:	0000                	c.unimp
80021ee4:	0000                	c.unimp
80021ee6:	0000                	c.unimp
80021ee8:	0000                	c.unimp
80021eea:	0000                	c.unimp
80021eec:	0000                	c.unimp
80021eee:	0000                	c.unimp
80021ef0:	0000                	c.unimp
80021ef2:	0000                	c.unimp
80021ef4:	0000                	c.unimp
80021ef6:	0000                	c.unimp
80021ef8:	0000                	c.unimp
80021efa:	0000                	c.unimp
80021efc:	0000                	c.unimp
80021efe:	0000                	c.unimp
80021f00:	0000                	c.unimp
80021f02:	0000                	c.unimp
80021f04:	0000                	c.unimp
80021f06:	0000                	c.unimp
80021f08:	0000                	c.unimp
80021f0a:	0000                	c.unimp
80021f0c:	0000                	c.unimp
80021f0e:	0000                	c.unimp
80021f10:	0000                	c.unimp
80021f12:	0000                	c.unimp
80021f14:	0000                	c.unimp
80021f16:	0000                	c.unimp
80021f18:	0000                	c.unimp
80021f1a:	0000                	c.unimp
80021f1c:	0000                	c.unimp
80021f1e:	0000                	c.unimp
80021f20:	0000                	c.unimp
80021f22:	0000                	c.unimp
80021f24:	0000                	c.unimp
80021f26:	0000                	c.unimp
80021f28:	0000                	c.unimp
80021f2a:	0000                	c.unimp
80021f2c:	0000                	c.unimp
80021f2e:	0000                	c.unimp
80021f30:	0000                	c.unimp
80021f32:	0000                	c.unimp
80021f34:	0000                	c.unimp
80021f36:	0000                	c.unimp
80021f38:	0000                	c.unimp
80021f3a:	0000                	c.unimp
80021f3c:	0000                	c.unimp
80021f3e:	0000                	c.unimp
80021f40:	0000                	c.unimp
80021f42:	0000                	c.unimp
80021f44:	0000                	c.unimp
80021f46:	0000                	c.unimp
80021f48:	0000                	c.unimp
80021f4a:	0000                	c.unimp
80021f4c:	0000                	c.unimp
80021f4e:	0000                	c.unimp
80021f50:	0000                	c.unimp
80021f52:	0000                	c.unimp
80021f54:	0000                	c.unimp
80021f56:	0000                	c.unimp
80021f58:	0000                	c.unimp
80021f5a:	0000                	c.unimp
80021f5c:	0000                	c.unimp
80021f5e:	0000                	c.unimp
80021f60:	0000                	c.unimp
80021f62:	0000                	c.unimp
80021f64:	0000                	c.unimp
80021f66:	0000                	c.unimp
80021f68:	0000                	c.unimp
80021f6a:	0000                	c.unimp
80021f6c:	0000                	c.unimp
80021f6e:	0000                	c.unimp
80021f70:	0000                	c.unimp
80021f72:	0000                	c.unimp
80021f74:	0000                	c.unimp
80021f76:	0000                	c.unimp
80021f78:	0000                	c.unimp
80021f7a:	0000                	c.unimp
80021f7c:	0000                	c.unimp
80021f7e:	0000                	c.unimp
80021f80:	0000                	c.unimp
80021f82:	0000                	c.unimp
80021f84:	0000                	c.unimp
80021f86:	0000                	c.unimp
80021f88:	0000                	c.unimp
80021f8a:	0000                	c.unimp
80021f8c:	0000                	c.unimp
80021f8e:	0000                	c.unimp
80021f90:	0000                	c.unimp
80021f92:	0000                	c.unimp
80021f94:	0000                	c.unimp
80021f96:	0000                	c.unimp
80021f98:	0000                	c.unimp
80021f9a:	0000                	c.unimp
80021f9c:	0000                	c.unimp
80021f9e:	0000                	c.unimp
80021fa0:	0000                	c.unimp
80021fa2:	0000                	c.unimp
80021fa4:	0000                	c.unimp
80021fa6:	0000                	c.unimp
80021fa8:	0000                	c.unimp
80021faa:	0000                	c.unimp
80021fac:	0000                	c.unimp
80021fae:	0000                	c.unimp
80021fb0:	0000                	c.unimp
80021fb2:	0000                	c.unimp
80021fb4:	0000                	c.unimp
80021fb6:	0000                	c.unimp
80021fb8:	0000                	c.unimp
80021fba:	0000                	c.unimp
80021fbc:	0000                	c.unimp
80021fbe:	0000                	c.unimp
80021fc0:	0000                	c.unimp
80021fc2:	0000                	c.unimp
80021fc4:	0000                	c.unimp
80021fc6:	0000                	c.unimp
80021fc8:	0000                	c.unimp
80021fca:	0000                	c.unimp
80021fcc:	0000                	c.unimp
80021fce:	0000                	c.unimp
80021fd0:	0000                	c.unimp
80021fd2:	0000                	c.unimp
80021fd4:	0000                	c.unimp
80021fd6:	0000                	c.unimp
80021fd8:	0000                	c.unimp
80021fda:	0000                	c.unimp
80021fdc:	0000                	c.unimp
80021fde:	0000                	c.unimp
80021fe0:	0000                	c.unimp
80021fe2:	0000                	c.unimp
80021fe4:	0000                	c.unimp
80021fe6:	0000                	c.unimp
80021fe8:	0000                	c.unimp
80021fea:	0000                	c.unimp
80021fec:	0000                	c.unimp
80021fee:	0000                	c.unimp
80021ff0:	0000                	c.unimp
80021ff2:	0000                	c.unimp
80021ff4:	0000                	c.unimp
80021ff6:	0000                	c.unimp
80021ff8:	0000                	c.unimp
80021ffa:	0000                	c.unimp
80021ffc:	0000                	c.unimp
80021ffe:	0000                	c.unimp

Disassembly of section .comment:

00000000 <.comment>:
   0:	3a434347          	fmsub.d	f6,f6,f4,f7,rmm
   4:	2820                	c.fld	f8,80(x8)
   6:	5078                	c.lw	x14,100(x8)
   8:	6361                	c.lui	x6,0x18
   a:	4e47206b          	0x4e47206b
   e:	2055                	c.jal	b2 <__stack_size-0x1f4e>
  10:	4952                	c.lwsp	x18,20(x2)
  12:	562d4353          	0x562d4353
  16:	4520                	c.lw	x8,72(x10)
  18:	626d                	c.lui	x4,0x1b
  1a:	6465                	c.lui	x8,0x19
  1c:	6564                	c.flw	f9,76(x10)
  1e:	2064                	c.fld	f9,192(x8)
  20:	2c434347          	fmsub.h	f6,f6,f4,f5,rmm
  24:	3620                	c.fld	f8,104(x12)
  26:	2d34                	c.fld	f13,88(x10)
  28:	6962                	c.flwsp	f18,24(x2)
  2a:	2974                	c.fld	f13,208(x10)
  2c:	3120                	c.fld	f8,96(x10)
  2e:	2e30                	c.fld	f12,88(x12)
  30:	2e31                	c.jal	34c <__stack_size-0x1cb4>
  32:	0030                	c.addi4spn	x12,x2,8

Disassembly of section .debug_frame:

00000000 <.debug_frame>:
   0:	000c                	0xc
   2:	0000                	c.unimp
   4:	ffff                	0xffff
   6:	ffff                	0xffff
   8:	7c010003          	lb	x0,1984(x2)
   c:	0d01                	c.addi	x26,0
   e:	0002                	c.slli64	x0
  10:	000c                	0xc
  12:	0000                	c.unimp
  14:	0000                	c.unimp
  16:	0000                	c.unimp
  18:	1f38                	c.addi4spn	x14,x2,952
  1a:	8000                	0x8000
  1c:	0094                	c.addi4spn	x13,x2,64
  1e:	0000                	c.unimp
  20:	000c                	0xc
  22:	0000                	c.unimp
  24:	ffff                	0xffff
  26:	ffff                	0xffff
  28:	7c010003          	lb	x0,1984(x2)
  2c:	0d01                	c.addi	x26,0
  2e:	0002                	c.slli64	x0
  30:	000c                	0xc
  32:	0000                	c.unimp
  34:	0020                	c.addi4spn	x8,x2,8
  36:	0000                	c.unimp
  38:	20a4                	c.fld	f9,64(x9)
  3a:	8000                	0x8000
  3c:	011c                	c.addi4spn	x15,x2,128
  3e:	0000                	c.unimp
